
BFMC_1.elf:     file format elf32-littlearm

Sections:
Idx Name          Size      VMA       LMA       File off  Algn
  0 .isr_vector   00000194  08000000  08000000  00001000  2**0
                  CONTENTS, ALLOC, LOAD, READONLY, DATA
  1 .text         000010a8  08000194  08000194  00001194  2**2
                  CONTENTS, ALLOC, LOAD, READONLY, CODE
  2 .rodata       000001ac  0800123c  0800123c  0000223c  2**2
                  CONTENTS, ALLOC, LOAD, READONLY, DATA
  3 .ARM.extab    00000000  080013e8  080013e8  00003050  2**0
                  CONTENTS, READONLY
  4 .ARM          00000000  080013e8  080013e8  00003050  2**0
                  CONTENTS, READONLY
  5 .preinit_array 00000000  080013e8  080013e8  00003050  2**0
                  CONTENTS, ALLOC, LOAD, DATA
  6 .init_array   00000004  080013e8  080013e8  000023e8  2**2
                  CONTENTS, ALLOC, LOAD, READONLY, DATA
  7 .fini_array   00000004  080013ec  080013ec  000023ec  2**2
                  CONTENTS, ALLOC, LOAD, READONLY, DATA
  8 .data         00000050  20000000  080013f0  00003000  2**2
                  CONTENTS, ALLOC, LOAD, DATA
  9 .bss          0000019c  20000050  08001440  00003050  2**2
                  ALLOC
 10 ._user_heap_stack 00000604  200001ec  08001440  000031ec  2**0
                  ALLOC
 11 .ARM.attributes 00000030  00000000  00000000  00003050  2**0
                  CONTENTS, READONLY
 12 .debug_info   000015db  00000000  00000000  00003080  2**0
                  CONTENTS, READONLY, DEBUGGING, OCTETS
 13 .debug_abbrev 000008ec  00000000  00000000  0000465b  2**0
                  CONTENTS, READONLY, DEBUGGING, OCTETS
 14 .debug_aranges 00000248  00000000  00000000  00004f48  2**3
                  CONTENTS, READONLY, DEBUGGING, OCTETS
 15 .debug_rnglists 000001bc  00000000  00000000  00005190  2**0
                  CONTENTS, READONLY, DEBUGGING, OCTETS
 16 .debug_macro  00002b3b  00000000  00000000  0000534c  2**0
                  CONTENTS, READONLY, DEBUGGING, OCTETS
 17 .debug_line   00003eea  00000000  00000000  00007e87  2**0
                  CONTENTS, READONLY, DEBUGGING, OCTETS
 18 .debug_str    00007d4f  00000000  00000000  0000bd71  2**0
                  CONTENTS, READONLY, DEBUGGING, OCTETS
 19 .comment      00000043  00000000  00000000  00013ac0  2**0
                  CONTENTS, READONLY
 20 .debug_frame  000008c8  00000000  00000000  00013b04  2**2
                  CONTENTS, READONLY, DEBUGGING, OCTETS
 21 .debug_line_str 0000006b  00000000  00000000  000143cc  2**0
                  CONTENTS, READONLY, DEBUGGING, OCTETS

Disassembly of section .text:

08000194 <__do_global_dtors_aux>:
 8000194:	b510      	push	{r4, lr}
 8000196:	4c05      	ldr	r4, [pc, #20]	@ (80001ac <__do_global_dtors_aux+0x18>)
 8000198:	7823      	ldrb	r3, [r4, #0]
 800019a:	b933      	cbnz	r3, 80001aa <__do_global_dtors_aux+0x16>
 800019c:	4b04      	ldr	r3, [pc, #16]	@ (80001b0 <__do_global_dtors_aux+0x1c>)
 800019e:	b113      	cbz	r3, 80001a6 <__do_global_dtors_aux+0x12>
 80001a0:	4804      	ldr	r0, [pc, #16]	@ (80001b4 <__do_global_dtors_aux+0x20>)
 80001a2:	f3af 8000 	nop.w
 80001a6:	2301      	movs	r3, #1
 80001a8:	7023      	strb	r3, [r4, #0]
 80001aa:	bd10      	pop	{r4, pc}
 80001ac:	20000050 	.word	0x20000050
 80001b0:	00000000 	.word	0x00000000
 80001b4:	08001224 	.word	0x08001224

080001b8 <frame_dummy>:
 80001b8:	b508      	push	{r3, lr}
 80001ba:	4b03      	ldr	r3, [pc, #12]	@ (80001c8 <frame_dummy+0x10>)
 80001bc:	b11b      	cbz	r3, 80001c6 <frame_dummy+0xe>
 80001be:	4903      	ldr	r1, [pc, #12]	@ (80001cc <frame_dummy+0x14>)
 80001c0:	4803      	ldr	r0, [pc, #12]	@ (80001d0 <frame_dummy+0x18>)
 80001c2:	f3af 8000 	nop.w
 80001c6:	bd08      	pop	{r3, pc}
 80001c8:	00000000 	.word	0x00000000
 80001cc:	20000054 	.word	0x20000054
 80001d0:	08001224 	.word	0x08001224

080001d4 <AS5600_ReadStatus>:
#define AS5600_STATUS       0x0B
#define AS5600_ANGLE_MSB    0x0E
#define AS5600_ANGLE_LSB    0x0F

uint8_t AS5600_ReadStatus(void)
{
 80001d4:	b580      	push	{r7, lr}
 80001d6:	b082      	sub	sp, #8
 80001d8:	af00      	add	r7, sp, #0
    uint8_t v = 0;
 80001da:	2300      	movs	r3, #0
 80001dc:	71fb      	strb	r3, [r7, #7]
    I2C1_ReadMulti(AS5600_I2C_ADDR, AS5600_STATUS, &v, 1);
 80001de:	1dfa      	adds	r2, r7, #7
 80001e0:	2301      	movs	r3, #1
 80001e2:	210b      	movs	r1, #11
 80001e4:	2036      	movs	r0, #54	@ 0x36
 80001e6:	f000 f9dd 	bl	80005a4 <I2C1_ReadMulti>
    return v;
 80001ea:	79fb      	ldrb	r3, [r7, #7]
}
 80001ec:	4618      	mov	r0, r3
 80001ee:	3708      	adds	r7, #8
 80001f0:	46bd      	mov	sp, r7
 80001f2:	bd80      	pop	{r7, pc}

080001f4 <AS5600_ReadAngleRaw>:

uint16_t AS5600_ReadAngleRaw(void)
{
 80001f4:	b580      	push	{r7, lr}
 80001f6:	b082      	sub	sp, #8
 80001f8:	af00      	add	r7, sp, #0
    uint8_t buf[2];
    I2C1_ReadMulti(AS5600_I2C_ADDR, AS5600_ANGLE_MSB, buf, 2);
 80001fa:	1d3a      	adds	r2, r7, #4
 80001fc:	2302      	movs	r3, #2
 80001fe:	210e      	movs	r1, #14
 8000200:	2036      	movs	r0, #54	@ 0x36
 8000202:	f000 f9cf 	bl	80005a4 <I2C1_ReadMulti>

    uint16_t raw = ((uint16_t)buf[0] << 8) | buf[1];
 8000206:	793b      	ldrb	r3, [r7, #4]
 8000208:	b21b      	sxth	r3, r3
 800020a:	021b      	lsls	r3, r3, #8
 800020c:	b21a      	sxth	r2, r3
 800020e:	797b      	ldrb	r3, [r7, #5]
 8000210:	b21b      	sxth	r3, r3
 8000212:	4313      	orrs	r3, r2
 8000214:	b21b      	sxth	r3, r3
 8000216:	80fb      	strh	r3, [r7, #6]
    raw &= 0x0FFF;   // lấy đúng 12 bit
 8000218:	88fb      	ldrh	r3, [r7, #6]
 800021a:	f3c3 030b 	ubfx	r3, r3, #0, #12
 800021e:	80fb      	strh	r3, [r7, #6]

    return raw;
 8000220:	88fb      	ldrh	r3, [r7, #6]
}
 8000222:	4618      	mov	r0, r3
 8000224:	3708      	adds	r7, #8
 8000226:	46bd      	mov	sp, r7
 8000228:	bd80      	pop	{r7, pc}
	...

0800022c <AS5600_ReadAngleDeg>:

float AS5600_ReadAngleDeg(void)
{
 800022c:	b580      	push	{r7, lr}
 800022e:	b082      	sub	sp, #8
 8000230:	af00      	add	r7, sp, #0
    uint16_t raw = AS5600_ReadAngleRaw();
 8000232:	f7ff ffdf 	bl	80001f4 <AS5600_ReadAngleRaw>
 8000236:	4603      	mov	r3, r0
 8000238:	80fb      	strh	r3, [r7, #6]
    return (raw * 360.0f) / 4096.0f;
 800023a:	88fb      	ldrh	r3, [r7, #6]
 800023c:	ee07 3a90 	vmov	s15, r3
 8000240:	eef8 7ae7 	vcvt.f32.s32	s15, s15
 8000244:	ed9f 7a07 	vldr	s14, [pc, #28]	@ 8000264 <AS5600_ReadAngleDeg+0x38>
 8000248:	ee67 7a87 	vmul.f32	s15, s15, s14
 800024c:	ed9f 7a06 	vldr	s14, [pc, #24]	@ 8000268 <AS5600_ReadAngleDeg+0x3c>
 8000250:	eec7 6a87 	vdiv.f32	s13, s15, s14
 8000254:	eef0 7a66 	vmov.f32	s15, s13
}
 8000258:	eeb0 0a67 	vmov.f32	s0, s15
 800025c:	3708      	adds	r7, #8
 800025e:	46bd      	mov	sp, r7
 8000260:	bd80      	pop	{r7, pc}
 8000262:	bf00      	nop
 8000264:	43b40000 	.word	0x43b40000
 8000268:	45800000 	.word	0x45800000

0800026c <BNO055_Init>:
#define BNO055_PWR_LOWPOWER   0x01
#define BNO055_PWR_SUSPEND    0x02


void BNO055_Init(void)
{
 800026c:	b580      	push	{r7, lr}
 800026e:	af00      	add	r7, sp, #0
    I2C1_WriteReg(BNO055_I2C_ADDR, BNO055_OPR_MODE, OPR_MODE_CONFIG);
 8000270:	2200      	movs	r2, #0
 8000272:	213d      	movs	r1, #61	@ 0x3d
 8000274:	2029      	movs	r0, #41	@ 0x29
 8000276:	f000 f91d 	bl	80004b4 <I2C1_WriteReg>

    I2C1_WriteReg(BNO055_I2C_ADDR, BNO055_PAGE_ID, 0x00);
 800027a:	2200      	movs	r2, #0
 800027c:	2107      	movs	r1, #7
 800027e:	2029      	movs	r0, #41	@ 0x29
 8000280:	f000 f918 	bl	80004b4 <I2C1_WriteReg>
    I2C1_WriteReg(BNO055_I2C_ADDR, BNO055_PWR_MODE, BNO055_PWR_NORMAL);
 8000284:	2200      	movs	r2, #0
 8000286:	213e      	movs	r1, #62	@ 0x3e
 8000288:	2029      	movs	r0, #41	@ 0x29
 800028a:	f000 f913 	bl	80004b4 <I2C1_WriteReg>

    I2C1_WriteReg(BNO055_I2C_ADDR, BNO055_OPR_MODE, OPR_MODE_NDOF);
 800028e:	220c      	movs	r2, #12
 8000290:	213d      	movs	r1, #61	@ 0x3d
 8000292:	2029      	movs	r0, #41	@ 0x29
 8000294:	f000 f90e 	bl	80004b4 <I2C1_WriteReg>
}
 8000298:	bf00      	nop
 800029a:	bd80      	pop	{r7, pc}

0800029c <BNO055_ReadReg>:

uint8_t BNO055_ReadReg(uint8_t reg)
{
 800029c:	b580      	push	{r7, lr}
 800029e:	b084      	sub	sp, #16
 80002a0:	af00      	add	r7, sp, #0
 80002a2:	4603      	mov	r3, r0
 80002a4:	71fb      	strb	r3, [r7, #7]
    uint8_t val = 0;
 80002a6:	2300      	movs	r3, #0
 80002a8:	73fb      	strb	r3, [r7, #15]
    I2C1_ReadMulti(BNO055_I2C_ADDR, reg, &val, 1);
 80002aa:	f107 020f 	add.w	r2, r7, #15
 80002ae:	79f9      	ldrb	r1, [r7, #7]
 80002b0:	2301      	movs	r3, #1
 80002b2:	2029      	movs	r0, #41	@ 0x29
 80002b4:	f000 f976 	bl	80005a4 <I2C1_ReadMulti>
    return val;
 80002b8:	7bfb      	ldrb	r3, [r7, #15]
}
 80002ba:	4618      	mov	r0, r3
 80002bc:	3710      	adds	r7, #16
 80002be:	46bd      	mov	sp, r7
 80002c0:	bd80      	pop	{r7, pc}

080002c2 <BNO055_ReadEuler_raw>:

void BNO055_ReadEuler_raw(int16_t *x, int16_t *y, int16_t *z)
{
 80002c2:	b580      	push	{r7, lr}
 80002c4:	b086      	sub	sp, #24
 80002c6:	af00      	add	r7, sp, #0
 80002c8:	60f8      	str	r0, [r7, #12]
 80002ca:	60b9      	str	r1, [r7, #8]
 80002cc:	607a      	str	r2, [r7, #4]
    uint8_t b[6];
    I2C1_ReadMulti(BNO055_I2C_ADDR, BNO055_EUL_X_LSB, b, 6);
 80002ce:	f107 0210 	add.w	r2, r7, #16
 80002d2:	2306      	movs	r3, #6
 80002d4:	211a      	movs	r1, #26
 80002d6:	2029      	movs	r0, #41	@ 0x29
 80002d8:	f000 f964 	bl	80005a4 <I2C1_ReadMulti>

    *x = (int16_t)((b[1]<<8)|b[0]);
 80002dc:	7c7b      	ldrb	r3, [r7, #17]
 80002de:	b21b      	sxth	r3, r3
 80002e0:	021b      	lsls	r3, r3, #8
 80002e2:	b21a      	sxth	r2, r3
 80002e4:	7c3b      	ldrb	r3, [r7, #16]
 80002e6:	b21b      	sxth	r3, r3
 80002e8:	4313      	orrs	r3, r2
 80002ea:	b21a      	sxth	r2, r3
 80002ec:	68fb      	ldr	r3, [r7, #12]
 80002ee:	801a      	strh	r2, [r3, #0]
    *y = (int16_t)((b[3]<<8)|b[2]);
 80002f0:	7cfb      	ldrb	r3, [r7, #19]
 80002f2:	b21b      	sxth	r3, r3
 80002f4:	021b      	lsls	r3, r3, #8
 80002f6:	b21a      	sxth	r2, r3
 80002f8:	7cbb      	ldrb	r3, [r7, #18]
 80002fa:	b21b      	sxth	r3, r3
 80002fc:	4313      	orrs	r3, r2
 80002fe:	b21a      	sxth	r2, r3
 8000300:	68bb      	ldr	r3, [r7, #8]
 8000302:	801a      	strh	r2, [r3, #0]
    *z = (int16_t)((b[5]<<8)|b[4]);
 8000304:	7d7b      	ldrb	r3, [r7, #21]
 8000306:	b21b      	sxth	r3, r3
 8000308:	021b      	lsls	r3, r3, #8
 800030a:	b21a      	sxth	r2, r3
 800030c:	7d3b      	ldrb	r3, [r7, #20]
 800030e:	b21b      	sxth	r3, r3
 8000310:	4313      	orrs	r3, r2
 8000312:	b21a      	sxth	r2, r3
 8000314:	687b      	ldr	r3, [r7, #4]
 8000316:	801a      	strh	r2, [r3, #0]
}
 8000318:	bf00      	nop
 800031a:	3718      	adds	r7, #24
 800031c:	46bd      	mov	sp, r7
 800031e:	bd80      	pop	{r7, pc}

08000320 <IMU_HealthCheck>:
{
    return BNO055_ReadReg(BNO055_CALIB_STAT);
}

void IMU_HealthCheck(int16_t ex, int16_t ey, int16_t ez)
{
 8000320:	b580      	push	{r7, lr}
 8000322:	b084      	sub	sp, #16
 8000324:	af00      	add	r7, sp, #0
 8000326:	4603      	mov	r3, r0
 8000328:	80fb      	strh	r3, [r7, #6]
 800032a:	460b      	mov	r3, r1
 800032c:	80bb      	strh	r3, [r7, #4]
 800032e:	4613      	mov	r3, r2
 8000330:	807b      	strh	r3, [r7, #2]
	uint8_t imu_zero_cnt= 0;
 8000332:	2300      	movs	r3, #0
 8000334:	73fb      	strb	r3, [r7, #15]
	uint8_t imu_fault = 0;
 8000336:	2300      	movs	r3, #0
 8000338:	73bb      	strb	r3, [r7, #14]
    if (ex == 0 && ey == 0 && ez == 0) {
 800033a:	f9b7 3006 	ldrsh.w	r3, [r7, #6]
 800033e:	2b00      	cmp	r3, #0
 8000340:	d113      	bne.n	800036a <IMU_HealthCheck+0x4a>
 8000342:	f9b7 3004 	ldrsh.w	r3, [r7, #4]
 8000346:	2b00      	cmp	r3, #0
 8000348:	d10f      	bne.n	800036a <IMU_HealthCheck+0x4a>
 800034a:	f9b7 3002 	ldrsh.w	r3, [r7, #2]
 800034e:	2b00      	cmp	r3, #0
 8000350:	d10b      	bne.n	800036a <IMU_HealthCheck+0x4a>
        if (imu_zero_cnt < 255)
 8000352:	7bfb      	ldrb	r3, [r7, #15]
 8000354:	2bff      	cmp	r3, #255	@ 0xff
 8000356:	d002      	beq.n	800035e <IMU_HealthCheck+0x3e>
            imu_zero_cnt++;
 8000358:	7bfb      	ldrb	r3, [r7, #15]
 800035a:	3301      	adds	r3, #1
 800035c:	73fb      	strb	r3, [r7, #15]
        if (imu_zero_cnt >= 5)
 800035e:	7bfb      	ldrb	r3, [r7, #15]
 8000360:	2b04      	cmp	r3, #4
 8000362:	d906      	bls.n	8000372 <IMU_HealthCheck+0x52>
            imu_fault = 1;
 8000364:	2301      	movs	r3, #1
 8000366:	73bb      	strb	r3, [r7, #14]
        if (imu_zero_cnt >= 5)
 8000368:	e003      	b.n	8000372 <IMU_HealthCheck+0x52>
    }
    else {
        imu_zero_cnt = 0;
 800036a:	2300      	movs	r3, #0
 800036c:	73fb      	strb	r3, [r7, #15]
        imu_fault = 0;
 800036e:	2300      	movs	r3, #0
 8000370:	73bb      	strb	r3, [r7, #14]
    }
    if (!imu_fault) {
 8000372:	7bbb      	ldrb	r3, [r7, #14]
 8000374:	2b00      	cmp	r3, #0
 8000376:	d101      	bne.n	800037c <IMU_HealthCheck+0x5c>
        Feed_WD();
 8000378:	f000 fd6a 	bl	8000e50 <Feed_WD>
    }
}
 800037c:	bf00      	nop
 800037e:	3710      	adds	r7, #16
 8000380:	46bd      	mov	sp, r7
 8000382:	bd80      	pop	{r7, pc}

08000384 <I2C1_Master_Init>:
#define GPIOB_BASE_ADDR      0x40020400
#define GPIOD_BASE_ADDR      0x40020C00
#define I2C1_BASE_ADDR       0x40005400

void I2C1_Master_Init()
{
 8000384:	b480      	push	{r7}
 8000386:	b08d      	sub	sp, #52	@ 0x34
 8000388:	af00      	add	r7, sp, #0
    volatile uint32_t* RCC_AHB1ENR = (uint32_t*)(RCC_BASE_ADDR + 0x30);
 800038a:	4b3f      	ldr	r3, [pc, #252]	@ (8000488 <I2C1_Master_Init+0x104>)
 800038c:	62fb      	str	r3, [r7, #44]	@ 0x2c
    volatile uint32_t* RCC_APB1ENR = (uint32_t*)(RCC_BASE_ADDR + 0x40);
 800038e:	4b3f      	ldr	r3, [pc, #252]	@ (800048c <I2C1_Master_Init+0x108>)
 8000390:	62bb      	str	r3, [r7, #40]	@ 0x28

    volatile uint32_t* MODER   = (uint32_t*)(GPIOB_BASE_ADDR + 0x00);
 8000392:	4b3f      	ldr	r3, [pc, #252]	@ (8000490 <I2C1_Master_Init+0x10c>)
 8000394:	627b      	str	r3, [r7, #36]	@ 0x24
    volatile uint32_t* OTYPER  = (uint32_t*)(GPIOB_BASE_ADDR + 0x04);
 8000396:	4b3f      	ldr	r3, [pc, #252]	@ (8000494 <I2C1_Master_Init+0x110>)
 8000398:	623b      	str	r3, [r7, #32]
    volatile uint32_t* OSPEEDR = (uint32_t*)(GPIOB_BASE_ADDR + 0x08);
 800039a:	4b3f      	ldr	r3, [pc, #252]	@ (8000498 <I2C1_Master_Init+0x114>)
 800039c:	61fb      	str	r3, [r7, #28]
    volatile uint32_t* PUPDR   = (uint32_t*)(GPIOB_BASE_ADDR + 0x0C);
 800039e:	4b3f      	ldr	r3, [pc, #252]	@ (800049c <I2C1_Master_Init+0x118>)
 80003a0:	61bb      	str	r3, [r7, #24]
    volatile uint32_t* AFRH    = (uint32_t*)(GPIOB_BASE_ADDR + 0x24);
 80003a2:	4b3f      	ldr	r3, [pc, #252]	@ (80004a0 <I2C1_Master_Init+0x11c>)
 80003a4:	617b      	str	r3, [r7, #20]

    volatile uint32_t* CR1   = (uint32_t*)(I2C1_BASE_ADDR + 0x00);
 80003a6:	4b3f      	ldr	r3, [pc, #252]	@ (80004a4 <I2C1_Master_Init+0x120>)
 80003a8:	613b      	str	r3, [r7, #16]
    volatile uint32_t* CR2   = (uint32_t*)(I2C1_BASE_ADDR + 0x04);
 80003aa:	4b3f      	ldr	r3, [pc, #252]	@ (80004a8 <I2C1_Master_Init+0x124>)
 80003ac:	60fb      	str	r3, [r7, #12]
    volatile uint32_t* CCR   = (uint32_t*)(I2C1_BASE_ADDR + 0x1C);
 80003ae:	4b3f      	ldr	r3, [pc, #252]	@ (80004ac <I2C1_Master_Init+0x128>)
 80003b0:	60bb      	str	r3, [r7, #8]
    volatile uint32_t* TRISE = (uint32_t*)(I2C1_BASE_ADDR + 0x20);
 80003b2:	4b3f      	ldr	r3, [pc, #252]	@ (80004b0 <I2C1_Master_Init+0x12c>)
 80003b4:	607b      	str	r3, [r7, #4]

    *RCC_AHB1ENR |= (1 << 1);		// ENABLE GPIOB CLOCK
 80003b6:	6afb      	ldr	r3, [r7, #44]	@ 0x2c
 80003b8:	681b      	ldr	r3, [r3, #0]
 80003ba:	f043 0202 	orr.w	r2, r3, #2
 80003be:	6afb      	ldr	r3, [r7, #44]	@ 0x2c
 80003c0:	601a      	str	r2, [r3, #0]
    *RCC_APB1ENR |= (1 << 21); 		// ENABLE I2C1 CLOCK
 80003c2:	6abb      	ldr	r3, [r7, #40]	@ 0x28
 80003c4:	681b      	ldr	r3, [r3, #0]
 80003c6:	f443 1200 	orr.w	r2, r3, #2097152	@ 0x200000
 80003ca:	6abb      	ldr	r3, [r7, #40]	@ 0x28
 80003cc:	601a      	str	r2, [r3, #0]

    *MODER &= ~((0b11<<(8*2)) | (0b11<<(9*2)));
 80003ce:	6a7b      	ldr	r3, [r7, #36]	@ 0x24
 80003d0:	681b      	ldr	r3, [r3, #0]
 80003d2:	f423 2270 	bic.w	r2, r3, #983040	@ 0xf0000
 80003d6:	6a7b      	ldr	r3, [r7, #36]	@ 0x24
 80003d8:	601a      	str	r2, [r3, #0]
    *MODER |=  ((0b10<<(8*2)) | (0b10<<(9*2)));  // AF
 80003da:	6a7b      	ldr	r3, [r7, #36]	@ 0x24
 80003dc:	681b      	ldr	r3, [r3, #0]
 80003de:	f443 2220 	orr.w	r2, r3, #655360	@ 0xa0000
 80003e2:	6a7b      	ldr	r3, [r7, #36]	@ 0x24
 80003e4:	601a      	str	r2, [r3, #0]
    *OTYPER |= (1<<8) | (1<<9);                  // OD
 80003e6:	6a3b      	ldr	r3, [r7, #32]
 80003e8:	681b      	ldr	r3, [r3, #0]
 80003ea:	f443 7240 	orr.w	r2, r3, #768	@ 0x300
 80003ee:	6a3b      	ldr	r3, [r7, #32]
 80003f0:	601a      	str	r2, [r3, #0]
    *OSPEEDR |= (0b11<<(8*2)) | (0b11<<(9*2));   // High
 80003f2:	69fb      	ldr	r3, [r7, #28]
 80003f4:	681b      	ldr	r3, [r3, #0]
 80003f6:	f443 2270 	orr.w	r2, r3, #983040	@ 0xf0000
 80003fa:	69fb      	ldr	r3, [r7, #28]
 80003fc:	601a      	str	r2, [r3, #0]
    *PUPDR &= ~((0b11<<(8*2)) | (0b11<<(9*2)));
 80003fe:	69bb      	ldr	r3, [r7, #24]
 8000400:	681b      	ldr	r3, [r3, #0]
 8000402:	f423 2270 	bic.w	r2, r3, #983040	@ 0xf0000
 8000406:	69bb      	ldr	r3, [r7, #24]
 8000408:	601a      	str	r2, [r3, #0]
    *PUPDR |=  ((0b01<<(8*2)) | (0b01<<(9*2)));  // Pull-up
 800040a:	69bb      	ldr	r3, [r7, #24]
 800040c:	681b      	ldr	r3, [r3, #0]
 800040e:	f443 22a0 	orr.w	r2, r3, #327680	@ 0x50000
 8000412:	69bb      	ldr	r3, [r7, #24]
 8000414:	601a      	str	r2, [r3, #0]

    *AFRH &= ~(0xF<<(0*4));
 8000416:	697b      	ldr	r3, [r7, #20]
 8000418:	681b      	ldr	r3, [r3, #0]
 800041a:	f023 020f 	bic.w	r2, r3, #15
 800041e:	697b      	ldr	r3, [r7, #20]
 8000420:	601a      	str	r2, [r3, #0]
    *AFRH |= (0x4<<(0*4));
 8000422:	697b      	ldr	r3, [r7, #20]
 8000424:	681b      	ldr	r3, [r3, #0]
 8000426:	f043 0204 	orr.w	r2, r3, #4
 800042a:	697b      	ldr	r3, [r7, #20]
 800042c:	601a      	str	r2, [r3, #0]
    *AFRH &= ~(0xF<<(1*4));
 800042e:	697b      	ldr	r3, [r7, #20]
 8000430:	681b      	ldr	r3, [r3, #0]
 8000432:	f023 02f0 	bic.w	r2, r3, #240	@ 0xf0
 8000436:	697b      	ldr	r3, [r7, #20]
 8000438:	601a      	str	r2, [r3, #0]
    *AFRH |= (0x4<<(1*4));
 800043a:	697b      	ldr	r3, [r7, #20]
 800043c:	681b      	ldr	r3, [r3, #0]
 800043e:	f043 0240 	orr.w	r2, r3, #64	@ 0x40
 8000442:	697b      	ldr	r3, [r7, #20]
 8000444:	601a      	str	r2, [r3, #0]

    *CR1 &= ~(1<<0);   // PE=0
 8000446:	693b      	ldr	r3, [r7, #16]
 8000448:	681b      	ldr	r3, [r3, #0]
 800044a:	f023 0201 	bic.w	r2, r3, #1
 800044e:	693b      	ldr	r3, [r7, #16]
 8000450:	601a      	str	r2, [r3, #0]
    *CR2 = 16;         // PCLK1=16MHz
 8000452:	68fb      	ldr	r3, [r7, #12]
 8000454:	2210      	movs	r2, #16
 8000456:	601a      	str	r2, [r3, #0]
    *CCR = 80;         // 100kHz
 8000458:	68bb      	ldr	r3, [r7, #8]
 800045a:	2250      	movs	r2, #80	@ 0x50
 800045c:	601a      	str	r2, [r3, #0]
    *TRISE = 17;       // 1000ns @16MHz
 800045e:	687b      	ldr	r3, [r7, #4]
 8000460:	2211      	movs	r2, #17
 8000462:	601a      	str	r2, [r3, #0]
    *CR1 |= (1<<10);   // ACK
 8000464:	693b      	ldr	r3, [r7, #16]
 8000466:	681b      	ldr	r3, [r3, #0]
 8000468:	f443 6280 	orr.w	r2, r3, #1024	@ 0x400
 800046c:	693b      	ldr	r3, [r7, #16]
 800046e:	601a      	str	r2, [r3, #0]
    *CR1 |= (1<<0);    // PE=1
 8000470:	693b      	ldr	r3, [r7, #16]
 8000472:	681b      	ldr	r3, [r3, #0]
 8000474:	f043 0201 	orr.w	r2, r3, #1
 8000478:	693b      	ldr	r3, [r7, #16]
 800047a:	601a      	str	r2, [r3, #0]
}
 800047c:	bf00      	nop
 800047e:	3734      	adds	r7, #52	@ 0x34
 8000480:	46bd      	mov	sp, r7
 8000482:	f85d 7b04 	ldr.w	r7, [sp], #4
 8000486:	4770      	bx	lr
 8000488:	40023830 	.word	0x40023830
 800048c:	40023840 	.word	0x40023840
 8000490:	40020400 	.word	0x40020400
 8000494:	40020404 	.word	0x40020404
 8000498:	40020408 	.word	0x40020408
 800049c:	4002040c 	.word	0x4002040c
 80004a0:	40020424 	.word	0x40020424
 80004a4:	40005400 	.word	0x40005400
 80004a8:	40005404 	.word	0x40005404
 80004ac:	4000541c 	.word	0x4000541c
 80004b0:	40005420 	.word	0x40005420

080004b4 <I2C1_WriteReg>:

void I2C1_WriteReg(uint8_t dev, uint8_t reg, uint8_t data)
{
 80004b4:	b480      	push	{r7}
 80004b6:	b089      	sub	sp, #36	@ 0x24
 80004b8:	af00      	add	r7, sp, #0
 80004ba:	4603      	mov	r3, r0
 80004bc:	71fb      	strb	r3, [r7, #7]
 80004be:	460b      	mov	r3, r1
 80004c0:	71bb      	strb	r3, [r7, #6]
 80004c2:	4613      	mov	r3, r2
 80004c4:	717b      	strb	r3, [r7, #5]
    volatile uint32_t *CR1 = (uint32_t*)(I2C1_BASE_ADDR + 0x00);
 80004c6:	4b33      	ldr	r3, [pc, #204]	@ (8000594 <I2C1_WriteReg+0xe0>)
 80004c8:	61bb      	str	r3, [r7, #24]
    volatile uint32_t *SR1 = (uint32_t*)(I2C1_BASE_ADDR + 0x14);
 80004ca:	4b33      	ldr	r3, [pc, #204]	@ (8000598 <I2C1_WriteReg+0xe4>)
 80004cc:	617b      	str	r3, [r7, #20]
    volatile uint32_t *SR2 = (uint32_t*)(I2C1_BASE_ADDR + 0x18);
 80004ce:	4b33      	ldr	r3, [pc, #204]	@ (800059c <I2C1_WriteReg+0xe8>)
 80004d0:	613b      	str	r3, [r7, #16]
    volatile uint32_t *DR  = (uint32_t*)(I2C1_BASE_ADDR + 0x10);
 80004d2:	4b33      	ldr	r3, [pc, #204]	@ (80005a0 <I2C1_WriteReg+0xec>)
 80004d4:	60fb      	str	r3, [r7, #12]

    *CR1 |= (1<<8);                    // START
 80004d6:	69bb      	ldr	r3, [r7, #24]
 80004d8:	681b      	ldr	r3, [r3, #0]
 80004da:	f443 7280 	orr.w	r2, r3, #256	@ 0x100
 80004de:	69bb      	ldr	r3, [r7, #24]
 80004e0:	601a      	str	r2, [r3, #0]
    while(!(*SR1 & 1));                // SB
 80004e2:	bf00      	nop
 80004e4:	697b      	ldr	r3, [r7, #20]
 80004e6:	681b      	ldr	r3, [r3, #0]
 80004e8:	f003 0301 	and.w	r3, r3, #1
 80004ec:	2b00      	cmp	r3, #0
 80004ee:	d0f9      	beq.n	80004e4 <I2C1_WriteReg+0x30>

    *DR = dev << 1;                    // Write
 80004f0:	79fb      	ldrb	r3, [r7, #7]
 80004f2:	005a      	lsls	r2, r3, #1
 80004f4:	68fb      	ldr	r3, [r7, #12]
 80004f6:	601a      	str	r2, [r3, #0]
    for (int i = 0; i < 1000; i++) {
 80004f8:	2300      	movs	r3, #0
 80004fa:	61fb      	str	r3, [r7, #28]
 80004fc:	e011      	b.n	8000522 <I2C1_WriteReg+0x6e>
        if (((*SR1 >> 1) &1) ==1) {
 80004fe:	697b      	ldr	r3, [r7, #20]
 8000500:	681b      	ldr	r3, [r3, #0]
 8000502:	085b      	lsrs	r3, r3, #1
 8000504:	f003 0301 	and.w	r3, r3, #1
 8000508:	2b01      	cmp	r3, #1
 800050a:	d102      	bne.n	8000512 <I2C1_WriteReg+0x5e>
            (void)*SR2;
 800050c:	693b      	ldr	r3, [r7, #16]
 800050e:	681b      	ldr	r3, [r3, #0]
            break;
 8000510:	e00b      	b.n	800052a <I2C1_WriteReg+0x76>
        }
        if (i == 999)
 8000512:	69fb      	ldr	r3, [r7, #28]
 8000514:	f240 32e7 	movw	r2, #999	@ 0x3e7
 8000518:	4293      	cmp	r3, r2
 800051a:	d028      	beq.n	800056e <I2C1_WriteReg+0xba>
    for (int i = 0; i < 1000; i++) {
 800051c:	69fb      	ldr	r3, [r7, #28]
 800051e:	3301      	adds	r3, #1
 8000520:	61fb      	str	r3, [r7, #28]
 8000522:	69fb      	ldr	r3, [r7, #28]
 8000524:	f5b3 7f7a 	cmp.w	r3, #1000	@ 0x3e8
 8000528:	dbe9      	blt.n	80004fe <I2C1_WriteReg+0x4a>
            goto i2c_error;
    }

    while(!(*SR1 & (1<<7)));	// TxE
 800052a:	bf00      	nop
 800052c:	697b      	ldr	r3, [r7, #20]
 800052e:	681b      	ldr	r3, [r3, #0]
 8000530:	f003 0380 	and.w	r3, r3, #128	@ 0x80
 8000534:	2b00      	cmp	r3, #0
 8000536:	d0f9      	beq.n	800052c <I2C1_WriteReg+0x78>
    *DR = reg;					// REGISTER
 8000538:	79ba      	ldrb	r2, [r7, #6]
 800053a:	68fb      	ldr	r3, [r7, #12]
 800053c:	601a      	str	r2, [r3, #0]
    while(!(*SR1 & (1<<7)));
 800053e:	bf00      	nop
 8000540:	697b      	ldr	r3, [r7, #20]
 8000542:	681b      	ldr	r3, [r3, #0]
 8000544:	f003 0380 	and.w	r3, r3, #128	@ 0x80
 8000548:	2b00      	cmp	r3, #0
 800054a:	d0f9      	beq.n	8000540 <I2C1_WriteReg+0x8c>
    *DR = data;					// DATA
 800054c:	797a      	ldrb	r2, [r7, #5]
 800054e:	68fb      	ldr	r3, [r7, #12]
 8000550:	601a      	str	r2, [r3, #0]
    while(!(*SR1 & (1<<2)));    // BTF
 8000552:	bf00      	nop
 8000554:	697b      	ldr	r3, [r7, #20]
 8000556:	681b      	ldr	r3, [r3, #0]
 8000558:	f003 0304 	and.w	r3, r3, #4
 800055c:	2b00      	cmp	r3, #0
 800055e:	d0f9      	beq.n	8000554 <I2C1_WriteReg+0xa0>
    *CR1 |= (1<<9);             // STOP
 8000560:	69bb      	ldr	r3, [r7, #24]
 8000562:	681b      	ldr	r3, [r3, #0]
 8000564:	f443 7200 	orr.w	r2, r3, #512	@ 0x200
 8000568:	69bb      	ldr	r3, [r7, #24]
 800056a:	601a      	str	r2, [r3, #0]
    return;
 800056c:	e00d      	b.n	800058a <I2C1_WriteReg+0xd6>
            goto i2c_error;
 800056e:	bf00      	nop

    //I2C ERROR
    i2c_error:
    *SR1 &= ~(1<<10);			// CLEAR AF
 8000570:	697b      	ldr	r3, [r7, #20]
 8000572:	681b      	ldr	r3, [r3, #0]
 8000574:	f423 6280 	bic.w	r2, r3, #1024	@ 0x400
 8000578:	697b      	ldr	r3, [r7, #20]
 800057a:	601a      	str	r2, [r3, #0]
    *CR1 |= (1<<9);				// STOP
 800057c:	69bb      	ldr	r3, [r7, #24]
 800057e:	681b      	ldr	r3, [r3, #0]
 8000580:	f443 7200 	orr.w	r2, r3, #512	@ 0x200
 8000584:	69bb      	ldr	r3, [r7, #24]
 8000586:	601a      	str	r2, [r3, #0]
    return;
 8000588:	bf00      	nop
}
 800058a:	3724      	adds	r7, #36	@ 0x24
 800058c:	46bd      	mov	sp, r7
 800058e:	f85d 7b04 	ldr.w	r7, [sp], #4
 8000592:	4770      	bx	lr
 8000594:	40005400 	.word	0x40005400
 8000598:	40005414 	.word	0x40005414
 800059c:	40005418 	.word	0x40005418
 80005a0:	40005410 	.word	0x40005410

080005a4 <I2C1_ReadMulti>:
void I2C1_ReadMulti(uint8_t dev, uint8_t reg, uint8_t *buf, uint8_t len)
{
 80005a4:	b480      	push	{r7}
 80005a6:	b08b      	sub	sp, #44	@ 0x2c
 80005a8:	af00      	add	r7, sp, #0
 80005aa:	603a      	str	r2, [r7, #0]
 80005ac:	461a      	mov	r2, r3
 80005ae:	4603      	mov	r3, r0
 80005b0:	71fb      	strb	r3, [r7, #7]
 80005b2:	460b      	mov	r3, r1
 80005b4:	71bb      	strb	r3, [r7, #6]
 80005b6:	4613      	mov	r3, r2
 80005b8:	717b      	strb	r3, [r7, #5]
    volatile uint32_t *CR1 = (uint32_t*)(I2C1_BASE_ADDR + 0x00);
 80005ba:	4b5a      	ldr	r3, [pc, #360]	@ (8000724 <I2C1_ReadMulti+0x180>)
 80005bc:	61bb      	str	r3, [r7, #24]
    volatile uint32_t *SR1 = (uint32_t*)(I2C1_BASE_ADDR + 0x14);
 80005be:	4b5a      	ldr	r3, [pc, #360]	@ (8000728 <I2C1_ReadMulti+0x184>)
 80005c0:	617b      	str	r3, [r7, #20]
    volatile uint32_t *SR2 = (uint32_t*)(I2C1_BASE_ADDR + 0x18);
 80005c2:	4b5a      	ldr	r3, [pc, #360]	@ (800072c <I2C1_ReadMulti+0x188>)
 80005c4:	613b      	str	r3, [r7, #16]
    volatile uint32_t *DR  = (uint32_t*)(I2C1_BASE_ADDR + 0x10);
 80005c6:	4b5a      	ldr	r3, [pc, #360]	@ (8000730 <I2C1_ReadMulti+0x18c>)
 80005c8:	60fb      	str	r3, [r7, #12]

    *CR1 |= (1<<8);
 80005ca:	69bb      	ldr	r3, [r7, #24]
 80005cc:	681b      	ldr	r3, [r3, #0]
 80005ce:	f443 7280 	orr.w	r2, r3, #256	@ 0x100
 80005d2:	69bb      	ldr	r3, [r7, #24]
 80005d4:	601a      	str	r2, [r3, #0]
    while(!(*SR1 & 1));
 80005d6:	bf00      	nop
 80005d8:	697b      	ldr	r3, [r7, #20]
 80005da:	681b      	ldr	r3, [r3, #0]
 80005dc:	f003 0301 	and.w	r3, r3, #1
 80005e0:	2b00      	cmp	r3, #0
 80005e2:	d0f9      	beq.n	80005d8 <I2C1_ReadMulti+0x34>

    *DR = dev << 1;
 80005e4:	79fb      	ldrb	r3, [r7, #7]
 80005e6:	005a      	lsls	r2, r3, #1
 80005e8:	68fb      	ldr	r3, [r7, #12]
 80005ea:	601a      	str	r2, [r3, #0]
    for (int i = 0; i < 1000; i++) {
 80005ec:	2300      	movs	r3, #0
 80005ee:	627b      	str	r3, [r7, #36]	@ 0x24
 80005f0:	e011      	b.n	8000616 <I2C1_ReadMulti+0x72>
        if (((*SR1 >> 1) &1) ==1) {
 80005f2:	697b      	ldr	r3, [r7, #20]
 80005f4:	681b      	ldr	r3, [r3, #0]
 80005f6:	085b      	lsrs	r3, r3, #1
 80005f8:	f003 0301 	and.w	r3, r3, #1
 80005fc:	2b01      	cmp	r3, #1
 80005fe:	d102      	bne.n	8000606 <I2C1_ReadMulti+0x62>
            (void)*SR2;
 8000600:	693b      	ldr	r3, [r7, #16]
 8000602:	681b      	ldr	r3, [r3, #0]
            break;
 8000604:	e00b      	b.n	800061e <I2C1_ReadMulti+0x7a>
        }
        if (i == 999)
 8000606:	6a7b      	ldr	r3, [r7, #36]	@ 0x24
 8000608:	f240 32e7 	movw	r2, #999	@ 0x3e7
 800060c:	4293      	cmp	r3, r2
 800060e:	d074      	beq.n	80006fa <I2C1_ReadMulti+0x156>
    for (int i = 0; i < 1000; i++) {
 8000610:	6a7b      	ldr	r3, [r7, #36]	@ 0x24
 8000612:	3301      	adds	r3, #1
 8000614:	627b      	str	r3, [r7, #36]	@ 0x24
 8000616:	6a7b      	ldr	r3, [r7, #36]	@ 0x24
 8000618:	f5b3 7f7a 	cmp.w	r3, #1000	@ 0x3e8
 800061c:	dbe9      	blt.n	80005f2 <I2C1_ReadMulti+0x4e>
            goto i2c_error;
    }

    while(!(*SR1 & (1<<7)));
 800061e:	bf00      	nop
 8000620:	697b      	ldr	r3, [r7, #20]
 8000622:	681b      	ldr	r3, [r3, #0]
 8000624:	f003 0380 	and.w	r3, r3, #128	@ 0x80
 8000628:	2b00      	cmp	r3, #0
 800062a:	d0f9      	beq.n	8000620 <I2C1_ReadMulti+0x7c>
    *DR = reg;
 800062c:	79ba      	ldrb	r2, [r7, #6]
 800062e:	68fb      	ldr	r3, [r7, #12]
 8000630:	601a      	str	r2, [r3, #0]

    while(!(*SR1 & (1<<2)));
 8000632:	bf00      	nop
 8000634:	697b      	ldr	r3, [r7, #20]
 8000636:	681b      	ldr	r3, [r3, #0]
 8000638:	f003 0304 	and.w	r3, r3, #4
 800063c:	2b00      	cmp	r3, #0
 800063e:	d0f9      	beq.n	8000634 <I2C1_ReadMulti+0x90>

    *CR1 |= (1<<8);
 8000640:	69bb      	ldr	r3, [r7, #24]
 8000642:	681b      	ldr	r3, [r3, #0]
 8000644:	f443 7280 	orr.w	r2, r3, #256	@ 0x100
 8000648:	69bb      	ldr	r3, [r7, #24]
 800064a:	601a      	str	r2, [r3, #0]
    while(!(*SR1 & 1));
 800064c:	bf00      	nop
 800064e:	697b      	ldr	r3, [r7, #20]
 8000650:	681b      	ldr	r3, [r3, #0]
 8000652:	f003 0301 	and.w	r3, r3, #1
 8000656:	2b00      	cmp	r3, #0
 8000658:	d0f9      	beq.n	800064e <I2C1_ReadMulti+0xaa>

    *DR = (dev << 1) | 1;
 800065a:	79fb      	ldrb	r3, [r7, #7]
 800065c:	005b      	lsls	r3, r3, #1
 800065e:	f043 0301 	orr.w	r3, r3, #1
 8000662:	461a      	mov	r2, r3
 8000664:	68fb      	ldr	r3, [r7, #12]
 8000666:	601a      	str	r2, [r3, #0]
    for (int i = 0; i < 1000; i++) {
 8000668:	2300      	movs	r3, #0
 800066a:	623b      	str	r3, [r7, #32]
 800066c:	e011      	b.n	8000692 <I2C1_ReadMulti+0xee>
        if (((*SR1 >> 1) &1) ==1) {
 800066e:	697b      	ldr	r3, [r7, #20]
 8000670:	681b      	ldr	r3, [r3, #0]
 8000672:	085b      	lsrs	r3, r3, #1
 8000674:	f003 0301 	and.w	r3, r3, #1
 8000678:	2b01      	cmp	r3, #1
 800067a:	d102      	bne.n	8000682 <I2C1_ReadMulti+0xde>
            (void)*SR2;
 800067c:	693b      	ldr	r3, [r7, #16]
 800067e:	681b      	ldr	r3, [r3, #0]
            break;
 8000680:	e00b      	b.n	800069a <I2C1_ReadMulti+0xf6>
        }
        if (i == 999)
 8000682:	6a3b      	ldr	r3, [r7, #32]
 8000684:	f240 32e7 	movw	r2, #999	@ 0x3e7
 8000688:	4293      	cmp	r3, r2
 800068a:	d038      	beq.n	80006fe <I2C1_ReadMulti+0x15a>
    for (int i = 0; i < 1000; i++) {
 800068c:	6a3b      	ldr	r3, [r7, #32]
 800068e:	3301      	adds	r3, #1
 8000690:	623b      	str	r3, [r7, #32]
 8000692:	6a3b      	ldr	r3, [r7, #32]
 8000694:	f5b3 7f7a 	cmp.w	r3, #1000	@ 0x3e8
 8000698:	dbe9      	blt.n	800066e <I2C1_ReadMulti+0xca>
            goto i2c_error;
    }


    for(uint8_t i=0;i<len;i++) {
 800069a:	2300      	movs	r3, #0
 800069c:	77fb      	strb	r3, [r7, #31]
 800069e:	e021      	b.n	80006e4 <I2C1_ReadMulti+0x140>
        if(i == len-1) {
 80006a0:	7ffa      	ldrb	r2, [r7, #31]
 80006a2:	797b      	ldrb	r3, [r7, #5]
 80006a4:	3b01      	subs	r3, #1
 80006a6:	429a      	cmp	r2, r3
 80006a8:	d10b      	bne.n	80006c2 <I2C1_ReadMulti+0x11e>
            *CR1 &= ~(1<<10);  // ACK = 0
 80006aa:	69bb      	ldr	r3, [r7, #24]
 80006ac:	681b      	ldr	r3, [r3, #0]
 80006ae:	f423 6280 	bic.w	r2, r3, #1024	@ 0x400
 80006b2:	69bb      	ldr	r3, [r7, #24]
 80006b4:	601a      	str	r2, [r3, #0]
            *CR1 |= (1<<9);    // STOP
 80006b6:	69bb      	ldr	r3, [r7, #24]
 80006b8:	681b      	ldr	r3, [r3, #0]
 80006ba:	f443 7200 	orr.w	r2, r3, #512	@ 0x200
 80006be:	69bb      	ldr	r3, [r7, #24]
 80006c0:	601a      	str	r2, [r3, #0]
        }
        while(!(*SR1 & (1<<6))); // RxNE
 80006c2:	bf00      	nop
 80006c4:	697b      	ldr	r3, [r7, #20]
 80006c6:	681b      	ldr	r3, [r3, #0]
 80006c8:	f003 0340 	and.w	r3, r3, #64	@ 0x40
 80006cc:	2b00      	cmp	r3, #0
 80006ce:	d0f9      	beq.n	80006c4 <I2C1_ReadMulti+0x120>
        buf[i] = *DR;
 80006d0:	68fb      	ldr	r3, [r7, #12]
 80006d2:	6819      	ldr	r1, [r3, #0]
 80006d4:	7ffb      	ldrb	r3, [r7, #31]
 80006d6:	683a      	ldr	r2, [r7, #0]
 80006d8:	4413      	add	r3, r2
 80006da:	b2ca      	uxtb	r2, r1
 80006dc:	701a      	strb	r2, [r3, #0]
    for(uint8_t i=0;i<len;i++) {
 80006de:	7ffb      	ldrb	r3, [r7, #31]
 80006e0:	3301      	adds	r3, #1
 80006e2:	77fb      	strb	r3, [r7, #31]
 80006e4:	7ffa      	ldrb	r2, [r7, #31]
 80006e6:	797b      	ldrb	r3, [r7, #5]
 80006e8:	429a      	cmp	r2, r3
 80006ea:	d3d9      	bcc.n	80006a0 <I2C1_ReadMulti+0xfc>
    }
    *CR1 |= (1<<10); // ACK lại
 80006ec:	69bb      	ldr	r3, [r7, #24]
 80006ee:	681b      	ldr	r3, [r3, #0]
 80006f0:	f443 6280 	orr.w	r2, r3, #1024	@ 0x400
 80006f4:	69bb      	ldr	r3, [r7, #24]
 80006f6:	601a      	str	r2, [r3, #0]
    return;
 80006f8:	e00f      	b.n	800071a <I2C1_ReadMulti+0x176>
            goto i2c_error;
 80006fa:	bf00      	nop
 80006fc:	e000      	b.n	8000700 <I2C1_ReadMulti+0x15c>
            goto i2c_error;
 80006fe:	bf00      	nop

    i2c_error:
    *SR1 &= ~(1<<10);  // clear AF
 8000700:	697b      	ldr	r3, [r7, #20]
 8000702:	681b      	ldr	r3, [r3, #0]
 8000704:	f423 6280 	bic.w	r2, r3, #1024	@ 0x400
 8000708:	697b      	ldr	r3, [r7, #20]
 800070a:	601a      	str	r2, [r3, #0]
    *CR1 |= (1<<9);    // STOP
 800070c:	69bb      	ldr	r3, [r7, #24]
 800070e:	681b      	ldr	r3, [r3, #0]
 8000710:	f443 7200 	orr.w	r2, r3, #512	@ 0x200
 8000714:	69bb      	ldr	r3, [r7, #24]
 8000716:	601a      	str	r2, [r3, #0]
    return;
 8000718:	bf00      	nop
}
 800071a:	372c      	adds	r7, #44	@ 0x2c
 800071c:	46bd      	mov	sp, r7
 800071e:	f85d 7b04 	ldr.w	r7, [sp], #4
 8000722:	4770      	bx	lr
 8000724:	40005400 	.word	0x40005400
 8000728:	40005414 	.word	0x40005414
 800072c:	40005418 	.word	0x40005418
 8000730:	40005410 	.word	0x40005410

08000734 <PWM_Init>:
#define GPIOA_BASE_ADDR    0x40020000
#define TIM2_BASE_ADDR     0x40000000


void PWM_Init(void)
{
 8000734:	b480      	push	{r7}
 8000736:	b08d      	sub	sp, #52	@ 0x34
 8000738:	af00      	add	r7, sp, #0
    volatile uint32_t* RCC_AHB1ENR = (uint32_t*)(RCC_BASE_ADDR + 0x30);
 800073a:	4b48      	ldr	r3, [pc, #288]	@ (800085c <PWM_Init+0x128>)
 800073c:	62fb      	str	r3, [r7, #44]	@ 0x2c
    volatile uint32_t* RCC_APB1ENR = (uint32_t*)(RCC_BASE_ADDR + 0x40);
 800073e:	4b48      	ldr	r3, [pc, #288]	@ (8000860 <PWM_Init+0x12c>)
 8000740:	62bb      	str	r3, [r7, #40]	@ 0x28

    *RCC_AHB1ENR |= (1 << 0);     // GPIOAEN
 8000742:	6afb      	ldr	r3, [r7, #44]	@ 0x2c
 8000744:	681b      	ldr	r3, [r3, #0]
 8000746:	f043 0201 	orr.w	r2, r3, #1
 800074a:	6afb      	ldr	r3, [r7, #44]	@ 0x2c
 800074c:	601a      	str	r2, [r3, #0]
    *RCC_APB1ENR |= (1 << 0);     // TIM2EN
 800074e:	6abb      	ldr	r3, [r7, #40]	@ 0x28
 8000750:	681b      	ldr	r3, [r3, #0]
 8000752:	f043 0201 	orr.w	r2, r3, #1
 8000756:	6abb      	ldr	r3, [r7, #40]	@ 0x28
 8000758:	601a      	str	r2, [r3, #0]

    volatile uint32_t* GPIOA_MODER = (uint32_t*)(GPIOA_BASE_ADDR + 0x00);
 800075a:	4b42      	ldr	r3, [pc, #264]	@ (8000864 <PWM_Init+0x130>)
 800075c:	627b      	str	r3, [r7, #36]	@ 0x24
    volatile uint32_t* GPIOA_AFRL  = (uint32_t*)(GPIOA_BASE_ADDR + 0x20);
 800075e:	4b42      	ldr	r3, [pc, #264]	@ (8000868 <PWM_Init+0x134>)
 8000760:	623b      	str	r3, [r7, #32]

    *GPIOA_MODER &= ~(0b11 << (0 * 2));  // clear mode PA0
 8000762:	6a7b      	ldr	r3, [r7, #36]	@ 0x24
 8000764:	681b      	ldr	r3, [r3, #0]
 8000766:	f023 0203 	bic.w	r2, r3, #3
 800076a:	6a7b      	ldr	r3, [r7, #36]	@ 0x24
 800076c:	601a      	str	r2, [r3, #0]
    *GPIOA_MODER |=  (0b10 << (0 * 2));  // set AF mode
 800076e:	6a7b      	ldr	r3, [r7, #36]	@ 0x24
 8000770:	681b      	ldr	r3, [r3, #0]
 8000772:	f043 0202 	orr.w	r2, r3, #2
 8000776:	6a7b      	ldr	r3, [r7, #36]	@ 0x24
 8000778:	601a      	str	r2, [r3, #0]
    *GPIOA_AFRL  &= ~(0xF << (0 * 4));
 800077a:	6a3b      	ldr	r3, [r7, #32]
 800077c:	681b      	ldr	r3, [r3, #0]
 800077e:	f023 020f 	bic.w	r2, r3, #15
 8000782:	6a3b      	ldr	r3, [r7, #32]
 8000784:	601a      	str	r2, [r3, #0]
    *GPIOA_AFRL  |=  (0x1 << (0 * 4));   // AF1 (TIM2_CH1)
 8000786:	6a3b      	ldr	r3, [r7, #32]
 8000788:	681b      	ldr	r3, [r3, #0]
 800078a:	f043 0201 	orr.w	r2, r3, #1
 800078e:	6a3b      	ldr	r3, [r7, #32]
 8000790:	601a      	str	r2, [r3, #0]

    *GPIOA_MODER &= ~(0b11 << (1 * 2));
 8000792:	6a7b      	ldr	r3, [r7, #36]	@ 0x24
 8000794:	681b      	ldr	r3, [r3, #0]
 8000796:	f023 020c 	bic.w	r2, r3, #12
 800079a:	6a7b      	ldr	r3, [r7, #36]	@ 0x24
 800079c:	601a      	str	r2, [r3, #0]
    *GPIOA_MODER |=  (0b10 << (1 * 2));
 800079e:	6a7b      	ldr	r3, [r7, #36]	@ 0x24
 80007a0:	681b      	ldr	r3, [r3, #0]
 80007a2:	f043 0208 	orr.w	r2, r3, #8
 80007a6:	6a7b      	ldr	r3, [r7, #36]	@ 0x24
 80007a8:	601a      	str	r2, [r3, #0]
    *GPIOA_AFRL  &= ~(0xF << (1 * 4));
 80007aa:	6a3b      	ldr	r3, [r7, #32]
 80007ac:	681b      	ldr	r3, [r3, #0]
 80007ae:	f023 02f0 	bic.w	r2, r3, #240	@ 0xf0
 80007b2:	6a3b      	ldr	r3, [r7, #32]
 80007b4:	601a      	str	r2, [r3, #0]
    *GPIOA_AFRL  |=  (0x1 << (1 * 4));   // AF1
 80007b6:	6a3b      	ldr	r3, [r7, #32]
 80007b8:	681b      	ldr	r3, [r3, #0]
 80007ba:	f043 0210 	orr.w	r2, r3, #16
 80007be:	6a3b      	ldr	r3, [r7, #32]
 80007c0:	601a      	str	r2, [r3, #0]

    volatile uint32_t* TIM2_PSC   = (uint32_t*)(TIM2_BASE_ADDR + 0x28);
 80007c2:	4b2a      	ldr	r3, [pc, #168]	@ (800086c <PWM_Init+0x138>)
 80007c4:	61fb      	str	r3, [r7, #28]
    volatile uint32_t* TIM2_ARR   = (uint32_t*)(TIM2_BASE_ADDR + 0x2C);
 80007c6:	4b2a      	ldr	r3, [pc, #168]	@ (8000870 <PWM_Init+0x13c>)
 80007c8:	61bb      	str	r3, [r7, #24]
    volatile uint32_t* TIM2_CCR1  = (uint32_t*)(TIM2_BASE_ADDR + 0x34);
 80007ca:	4b2a      	ldr	r3, [pc, #168]	@ (8000874 <PWM_Init+0x140>)
 80007cc:	617b      	str	r3, [r7, #20]
    volatile uint32_t* TIM2_CCR2  = (uint32_t*)(TIM2_BASE_ADDR + 0x38);
 80007ce:	4b2a      	ldr	r3, [pc, #168]	@ (8000878 <PWM_Init+0x144>)
 80007d0:	613b      	str	r3, [r7, #16]
    volatile uint32_t* TIM2_CCMR1 = (uint32_t*)(TIM2_BASE_ADDR + 0x18);
 80007d2:	4b2a      	ldr	r3, [pc, #168]	@ (800087c <PWM_Init+0x148>)
 80007d4:	60fb      	str	r3, [r7, #12]
    volatile uint32_t* TIM2_CCER  = (uint32_t*)(TIM2_BASE_ADDR + 0x20);
 80007d6:	4b2a      	ldr	r3, [pc, #168]	@ (8000880 <PWM_Init+0x14c>)
 80007d8:	60bb      	str	r3, [r7, #8]
    volatile uint32_t* TIM2_CR1   = (uint32_t*)(TIM2_BASE_ADDR + 0x00);
 80007da:	f04f 4380 	mov.w	r3, #1073741824	@ 0x40000000
 80007de:	607b      	str	r3, [r7, #4]
    volatile uint32_t* TIM2_EGR   = (uint32_t*)(TIM2_BASE_ADDR + 0x14);
 80007e0:	4b28      	ldr	r3, [pc, #160]	@ (8000884 <PWM_Init+0x150>)
 80007e2:	603b      	str	r3, [r7, #0]

    *TIM2_PSC = 16 - 1;     // chia 16MHz/16 = 1MHz tick
 80007e4:	69fb      	ldr	r3, [r7, #28]
 80007e6:	220f      	movs	r2, #15
 80007e8:	601a      	str	r2, [r3, #0]
    *TIM2_ARR = 20000-1;       // chu kỳ 1000 tick => PWM 1kHz
 80007ea:	69bb      	ldr	r3, [r7, #24]
 80007ec:	f644 621f 	movw	r2, #19999	@ 0x4e1f
 80007f0:	601a      	str	r2, [r3, #0]
    *TIM2_CCR1 = 1500;        // Servo speed stop (1.5 ms)
 80007f2:	697b      	ldr	r3, [r7, #20]
 80007f4:	f240 52dc 	movw	r2, #1500	@ 0x5dc
 80007f8:	601a      	str	r2, [r3, #0]
    *TIM2_CCR2 = 1500;        // Servo steering center
 80007fa:	693b      	ldr	r3, [r7, #16]
 80007fc:	f240 52dc 	movw	r2, #1500	@ 0x5dc
 8000800:	601a      	str	r2, [r3, #0]


    // ==== 4. Chọn PWM mode 1, bật preload ====
    *TIM2_CCMR1 &= ~((0xFF << 0) | (0xFF << 8));
 8000802:	68fb      	ldr	r3, [r7, #12]
 8000804:	681b      	ldr	r3, [r3, #0]
 8000806:	0c1b      	lsrs	r3, r3, #16
 8000808:	041b      	lsls	r3, r3, #16
 800080a:	68fa      	ldr	r2, [r7, #12]
 800080c:	6013      	str	r3, [r2, #0]
    // CH1
    *TIM2_CCMR1 |= (6 << 4) | (1 << 3);   // OC1M, OC1PE
 800080e:	68fb      	ldr	r3, [r7, #12]
 8000810:	681b      	ldr	r3, [r3, #0]
 8000812:	f043 0268 	orr.w	r2, r3, #104	@ 0x68
 8000816:	68fb      	ldr	r3, [r7, #12]
 8000818:	601a      	str	r2, [r3, #0]
    // CH2
    *TIM2_CCMR1 |= (6 << 12) | (1 << 11); // OC2M, OC2PE
 800081a:	68fb      	ldr	r3, [r7, #12]
 800081c:	681b      	ldr	r3, [r3, #0]
 800081e:	f443 42d0 	orr.w	r2, r3, #26624	@ 0x6800
 8000822:	68fb      	ldr	r3, [r7, #12]
 8000824:	601a      	str	r2, [r3, #0]

    *TIM2_CCER |= (1 << 0);   // CC1E
 8000826:	68bb      	ldr	r3, [r7, #8]
 8000828:	681b      	ldr	r3, [r3, #0]
 800082a:	f043 0201 	orr.w	r2, r3, #1
 800082e:	68bb      	ldr	r3, [r7, #8]
 8000830:	601a      	str	r2, [r3, #0]
    *TIM2_CCER |= (1 << 4);   // CC2E
 8000832:	68bb      	ldr	r3, [r7, #8]
 8000834:	681b      	ldr	r3, [r3, #0]
 8000836:	f043 0210 	orr.w	r2, r3, #16
 800083a:	68bb      	ldr	r3, [r7, #8]
 800083c:	601a      	str	r2, [r3, #0]

    *TIM2_EGR = 1;            // UG=1
 800083e:	683b      	ldr	r3, [r7, #0]
 8000840:	2201      	movs	r2, #1
 8000842:	601a      	str	r2, [r3, #0]

    *TIM2_CR1 |= (1 << 0);    // CEN=1
 8000844:	687b      	ldr	r3, [r7, #4]
 8000846:	681b      	ldr	r3, [r3, #0]
 8000848:	f043 0201 	orr.w	r2, r3, #1
 800084c:	687b      	ldr	r3, [r7, #4]
 800084e:	601a      	str	r2, [r3, #0]

}
 8000850:	bf00      	nop
 8000852:	3734      	adds	r7, #52	@ 0x34
 8000854:	46bd      	mov	sp, r7
 8000856:	f85d 7b04 	ldr.w	r7, [sp], #4
 800085a:	4770      	bx	lr
 800085c:	40023830 	.word	0x40023830
 8000860:	40023840 	.word	0x40023840
 8000864:	40020000 	.word	0x40020000
 8000868:	40020020 	.word	0x40020020
 800086c:	40000028 	.word	0x40000028
 8000870:	4000002c 	.word	0x4000002c
 8000874:	40000034 	.word	0x40000034
 8000878:	40000038 	.word	0x40000038
 800087c:	40000018 	.word	0x40000018
 8000880:	40000020 	.word	0x40000020
 8000884:	40000014 	.word	0x40000014

08000888 <Servo_Speed_Set>:

void Servo_Speed_Set(uint16_t us)
{
 8000888:	b580      	push	{r7, lr}
 800088a:	b084      	sub	sp, #16
 800088c:	af00      	add	r7, sp, #0
 800088e:	4603      	mov	r3, r0
 8000890:	80fb      	strh	r3, [r7, #6]
    volatile uint32_t* TIM2_CCR1 = (uint32_t*)(TIM2_BASE_ADDR + 0x34);
 8000892:	4b0a      	ldr	r3, [pc, #40]	@ (80008bc <Servo_Speed_Set+0x34>)
 8000894:	60fb      	str	r3, [r7, #12]
    *TIM2_CCR1 = us;
 8000896:	88fa      	ldrh	r2, [r7, #6]
 8000898:	68fb      	ldr	r3, [r7, #12]
 800089a:	601a      	str	r2, [r3, #0]
    UART2_print_log("@speed:");
 800089c:	4808      	ldr	r0, [pc, #32]	@ (80008c0 <Servo_Speed_Set+0x38>)
 800089e:	f000 f9b5 	bl	8000c0c <UART2_print_log>
    UART2_send_float(us);
 80008a2:	88fb      	ldrh	r3, [r7, #6]
 80008a4:	ee07 3a90 	vmov	s15, r3
 80008a8:	eef8 7a67 	vcvt.f32.u32	s15, s15
 80008ac:	eeb0 0a67 	vmov.f32	s0, s15
 80008b0:	f000 f9c8 	bl	8000c44 <UART2_send_float>
}
 80008b4:	bf00      	nop
 80008b6:	3710      	adds	r7, #16
 80008b8:	46bd      	mov	sp, r7
 80008ba:	bd80      	pop	{r7, pc}
 80008bc:	40000034 	.word	0x40000034
 80008c0:	0800123c 	.word	0x0800123c

080008c4 <Servo_Steering_Set>:

void Servo_Steering_Set(uint16_t us)
{
 80008c4:	b580      	push	{r7, lr}
 80008c6:	b084      	sub	sp, #16
 80008c8:	af00      	add	r7, sp, #0
 80008ca:	4603      	mov	r3, r0
 80008cc:	80fb      	strh	r3, [r7, #6]
    volatile uint32_t* TIM2_CCR2 = (uint32_t*)(TIM2_BASE_ADDR + 0x38);
 80008ce:	4b0a      	ldr	r3, [pc, #40]	@ (80008f8 <Servo_Steering_Set+0x34>)
 80008d0:	60fb      	str	r3, [r7, #12]
    *TIM2_CCR2 = us;
 80008d2:	88fa      	ldrh	r2, [r7, #6]
 80008d4:	68fb      	ldr	r3, [r7, #12]
 80008d6:	601a      	str	r2, [r3, #0]
    UART2_print_log("@steer:");
 80008d8:	4808      	ldr	r0, [pc, #32]	@ (80008fc <Servo_Steering_Set+0x38>)
 80008da:	f000 f997 	bl	8000c0c <UART2_print_log>
    UART2_send_float(us);
 80008de:	88fb      	ldrh	r3, [r7, #6]
 80008e0:	ee07 3a90 	vmov	s15, r3
 80008e4:	eef8 7a67 	vcvt.f32.u32	s15, s15
 80008e8:	eeb0 0a67 	vmov.f32	s0, s15
 80008ec:	f000 f9aa 	bl	8000c44 <UART2_send_float>
}
 80008f0:	bf00      	nop
 80008f2:	3710      	adds	r7, #16
 80008f4:	46bd      	mov	sp, r7
 80008f6:	bd80      	pop	{r7, pc}
 80008f8:	40000038 	.word	0x40000038
 80008fc:	08001244 	.word	0x08001244

08000900 <SysTick_Init>:
#define SYST_CVR   (*(volatile uint32_t *)(SYSTICK_BASE + 0x08))

volatile uint32_t ms_tick = 0;

void SysTick_Init(uint32_t cpu_freq)
{
 8000900:	b480      	push	{r7}
 8000902:	b085      	sub	sp, #20
 8000904:	af00      	add	r7, sp, #0
 8000906:	6078      	str	r0, [r7, #4]
    uint32_t reload = (cpu_freq / 1000) - 1;
 8000908:	687b      	ldr	r3, [r7, #4]
 800090a:	4a0a      	ldr	r2, [pc, #40]	@ (8000934 <SysTick_Init+0x34>)
 800090c:	fba2 2303 	umull	r2, r3, r2, r3
 8000910:	099b      	lsrs	r3, r3, #6
 8000912:	3b01      	subs	r3, #1
 8000914:	60fb      	str	r3, [r7, #12]

    SYST_RVR = reload;      // Set reload value
 8000916:	4a08      	ldr	r2, [pc, #32]	@ (8000938 <SysTick_Init+0x38>)
 8000918:	68fb      	ldr	r3, [r7, #12]
 800091a:	6013      	str	r3, [r2, #0]
    SYST_CVR = 0;           // Clear current value
 800091c:	4b07      	ldr	r3, [pc, #28]	@ (800093c <SysTick_Init+0x3c>)
 800091e:	2200      	movs	r2, #0
 8000920:	601a      	str	r2, [r3, #0]

    SYST_CSR = (1 << 2) | (1 << 1) | (1 << 0);  // CLKSOURCE + TICKINT + ENABLE
 8000922:	4b07      	ldr	r3, [pc, #28]	@ (8000940 <SysTick_Init+0x40>)
 8000924:	2207      	movs	r2, #7
 8000926:	601a      	str	r2, [r3, #0]

}
 8000928:	bf00      	nop
 800092a:	3714      	adds	r7, #20
 800092c:	46bd      	mov	sp, r7
 800092e:	f85d 7b04 	ldr.w	r7, [sp], #4
 8000932:	4770      	bx	lr
 8000934:	10624dd3 	.word	0x10624dd3
 8000938:	e000e014 	.word	0xe000e014
 800093c:	e000e018 	.word	0xe000e018
 8000940:	e000e010 	.word	0xe000e010

08000944 <Delay_t>:

void Delay_t(uint32_t ms)
{
 8000944:	b480      	push	{r7}
 8000946:	b083      	sub	sp, #12
 8000948:	af00      	add	r7, sp, #0
 800094a:	6078      	str	r0, [r7, #4]
	while(ms--)
 800094c:	e007      	b.n	800095e <Delay_t+0x1a>
	{
		while(((SYST_CSR >>16) &1) ==0);
 800094e:	bf00      	nop
 8000950:	4b09      	ldr	r3, [pc, #36]	@ (8000978 <Delay_t+0x34>)
 8000952:	681b      	ldr	r3, [r3, #0]
 8000954:	0c1b      	lsrs	r3, r3, #16
 8000956:	f003 0301 	and.w	r3, r3, #1
 800095a:	2b00      	cmp	r3, #0
 800095c:	d0f8      	beq.n	8000950 <Delay_t+0xc>
	while(ms--)
 800095e:	687b      	ldr	r3, [r7, #4]
 8000960:	1e5a      	subs	r2, r3, #1
 8000962:	607a      	str	r2, [r7, #4]
 8000964:	2b00      	cmp	r3, #0
 8000966:	d1f2      	bne.n	800094e <Delay_t+0xa>
	}
}
 8000968:	bf00      	nop
 800096a:	bf00      	nop
 800096c:	370c      	adds	r7, #12
 800096e:	46bd      	mov	sp, r7
 8000970:	f85d 7b04 	ldr.w	r7, [sp], #4
 8000974:	4770      	bx	lr
 8000976:	bf00      	nop
 8000978:	e000e010 	.word	0xe000e010

0800097c <SysTick_Handler>:
void SysTick_Handler(void)
{
 800097c:	b480      	push	{r7}
 800097e:	af00      	add	r7, sp, #0
    ms_tick++;
 8000980:	4b04      	ldr	r3, [pc, #16]	@ (8000994 <SysTick_Handler+0x18>)
 8000982:	681b      	ldr	r3, [r3, #0]
 8000984:	3301      	adds	r3, #1
 8000986:	4a03      	ldr	r2, [pc, #12]	@ (8000994 <SysTick_Handler+0x18>)
 8000988:	6013      	str	r3, [r2, #0]
}
 800098a:	bf00      	nop
 800098c:	46bd      	mov	sp, r7
 800098e:	f85d 7b04 	ldr.w	r7, [sp], #4
 8000992:	4770      	bx	lr
 8000994:	2000006c 	.word	0x2000006c

08000998 <Timer3_Init>:
	*TIM2_ARR = 1;				// AUTO RELOAD
	*TIM2_CR1 |= (1 << 0);		// ENABLE TIM2
}

void Timer3_Init(void)
{
 8000998:	b480      	push	{r7}
 800099a:	b087      	sub	sp, #28
 800099c:	af00      	add	r7, sp, #0
    uint32_t* RCC_APB1ENR = (uint32_t*)(RCC_BASE_ADDR + 0x40);
 800099e:	4b18      	ldr	r3, [pc, #96]	@ (8000a00 <Timer3_Init+0x68>)
 80009a0:	617b      	str	r3, [r7, #20]
    uint32_t* TIM3_PSC = (uint32_t*)(TIM3_BASE_ADDR + 0x28);
 80009a2:	4b18      	ldr	r3, [pc, #96]	@ (8000a04 <Timer3_Init+0x6c>)
 80009a4:	613b      	str	r3, [r7, #16]
    uint32_t* TIM3_ARR = (uint32_t*)(TIM3_BASE_ADDR + 0x2C);
 80009a6:	4b18      	ldr	r3, [pc, #96]	@ (8000a08 <Timer3_Init+0x70>)
 80009a8:	60fb      	str	r3, [r7, #12]
    uint32_t* TIM3_CR1 = (uint32_t*)(TIM3_BASE_ADDR + 0x00);
 80009aa:	4b18      	ldr	r3, [pc, #96]	@ (8000a0c <Timer3_Init+0x74>)
 80009ac:	60bb      	str	r3, [r7, #8]
    uint32_t* TIM3_EGR = (uint32_t*)(TIM3_BASE_ADDR + 0x14);
 80009ae:	4b18      	ldr	r3, [pc, #96]	@ (8000a10 <Timer3_Init+0x78>)
 80009b0:	607b      	str	r3, [r7, #4]
    uint32_t* TIM3_SR  = (uint32_t*)(TIM3_BASE_ADDR + 0x10);
 80009b2:	4b18      	ldr	r3, [pc, #96]	@ (8000a14 <Timer3_Init+0x7c>)
 80009b4:	603b      	str	r3, [r7, #0]

    *RCC_APB1ENR |= (1 << 1);   // TIM3EN
 80009b6:	697b      	ldr	r3, [r7, #20]
 80009b8:	681b      	ldr	r3, [r3, #0]
 80009ba:	f043 0202 	orr.w	r2, r3, #2
 80009be:	697b      	ldr	r3, [r7, #20]
 80009c0:	601a      	str	r2, [r3, #0]
    *TIM3_CR1 = 0;
 80009c2:	68bb      	ldr	r3, [r7, #8]
 80009c4:	2200      	movs	r2, #0
 80009c6:	601a      	str	r2, [r3, #0]
    *TIM3_PSC = 84 - 1;         // 1 MHz
 80009c8:	693b      	ldr	r3, [r7, #16]
 80009ca:	2253      	movs	r2, #83	@ 0x53
 80009cc:	601a      	str	r2, [r3, #0]
    *TIM3_ARR = 1000 - 1;       // 1 ms
 80009ce:	68fb      	ldr	r3, [r7, #12]
 80009d0:	f240 32e7 	movw	r2, #999	@ 0x3e7
 80009d4:	601a      	str	r2, [r3, #0]
    *TIM3_EGR = 1;              // LOAD PSC, ARR
 80009d6:	687b      	ldr	r3, [r7, #4]
 80009d8:	2201      	movs	r2, #1
 80009da:	601a      	str	r2, [r3, #0]
    *TIM3_SR &= ~1;             // CLEAR UIF
 80009dc:	683b      	ldr	r3, [r7, #0]
 80009de:	681b      	ldr	r3, [r3, #0]
 80009e0:	f023 0201 	bic.w	r2, r3, #1
 80009e4:	683b      	ldr	r3, [r7, #0]
 80009e6:	601a      	str	r2, [r3, #0]
    *TIM3_CR1 |= 1;             // CEN
 80009e8:	68bb      	ldr	r3, [r7, #8]
 80009ea:	681b      	ldr	r3, [r3, #0]
 80009ec:	f043 0201 	orr.w	r2, r3, #1
 80009f0:	68bb      	ldr	r3, [r7, #8]
 80009f2:	601a      	str	r2, [r3, #0]
}
 80009f4:	bf00      	nop
 80009f6:	371c      	adds	r7, #28
 80009f8:	46bd      	mov	sp, r7
 80009fa:	f85d 7b04 	ldr.w	r7, [sp], #4
 80009fe:	4770      	bx	lr
 8000a00:	40023840 	.word	0x40023840
 8000a04:	40000428 	.word	0x40000428
 8000a08:	4000042c 	.word	0x4000042c
 8000a0c:	40000400 	.word	0x40000400
 8000a10:	40000414 	.word	0x40000414
 8000a14:	40000410 	.word	0x40000410

08000a18 <UART2_init>:
    *USART1_CR1 |=  (1 << 2);    // RE
    *USART1_CR1 |=  (1 << 3);    // TE
    *USART1_CR1 |=  (1 << 13);   // UE
}
void UART2_init(void)
{
 8000a18:	b480      	push	{r7}
 8000a1a:	b087      	sub	sp, #28
 8000a1c:	af00      	add	r7, sp, #0
    uint32_t* RCC_AHB1ENR = (uint32_t*)(RCC_BASE_ADDR + 0x30);
 8000a1e:	4b2b      	ldr	r3, [pc, #172]	@ (8000acc <UART2_init+0xb4>)
 8000a20:	617b      	str	r3, [r7, #20]
    uint32_t* RCC_APB1ENR = (uint32_t*)(RCC_BASE_ADDR + 0x40);
 8000a22:	4b2b      	ldr	r3, [pc, #172]	@ (8000ad0 <UART2_init+0xb8>)
 8000a24:	613b      	str	r3, [r7, #16]

    *RCC_AHB1ENR |= (1 << 0);     // GPIOA
 8000a26:	697b      	ldr	r3, [r7, #20]
 8000a28:	681b      	ldr	r3, [r3, #0]
 8000a2a:	f043 0201 	orr.w	r2, r3, #1
 8000a2e:	697b      	ldr	r3, [r7, #20]
 8000a30:	601a      	str	r2, [r3, #0]
    *RCC_APB1ENR |= (1 << 17);    // USART2
 8000a32:	693b      	ldr	r3, [r7, #16]
 8000a34:	681b      	ldr	r3, [r3, #0]
 8000a36:	f443 3200 	orr.w	r2, r3, #131072	@ 0x20000
 8000a3a:	693b      	ldr	r3, [r7, #16]
 8000a3c:	601a      	str	r2, [r3, #0]

    /* PA2 TX, PA3 RX */
    uint32_t* GPIOA_MODER = (uint32_t*)(GPIOA_BASE_ADDR + 0x00);
 8000a3e:	4b25      	ldr	r3, [pc, #148]	@ (8000ad4 <UART2_init+0xbc>)
 8000a40:	60fb      	str	r3, [r7, #12]
    uint32_t* GPIOA_AFRL  = (uint32_t*)(GPIOA_BASE_ADDR + 0x20);
 8000a42:	4b25      	ldr	r3, [pc, #148]	@ (8000ad8 <UART2_init+0xc0>)
 8000a44:	60bb      	str	r3, [r7, #8]

    *GPIOA_MODER &= ~((3 << (2*2)) | (3 << (3*2)));
 8000a46:	68fb      	ldr	r3, [r7, #12]
 8000a48:	681b      	ldr	r3, [r3, #0]
 8000a4a:	f023 02f0 	bic.w	r2, r3, #240	@ 0xf0
 8000a4e:	68fb      	ldr	r3, [r7, #12]
 8000a50:	601a      	str	r2, [r3, #0]
    *GPIOA_MODER |=  ((2 << (2*2)) | (2 << (3*2)));
 8000a52:	68fb      	ldr	r3, [r7, #12]
 8000a54:	681b      	ldr	r3, [r3, #0]
 8000a56:	f043 02a0 	orr.w	r2, r3, #160	@ 0xa0
 8000a5a:	68fb      	ldr	r3, [r7, #12]
 8000a5c:	601a      	str	r2, [r3, #0]

    *GPIOA_AFRL  &= ~((0xF << (2*4)) | (0xF << (3*4)));
 8000a5e:	68bb      	ldr	r3, [r7, #8]
 8000a60:	681b      	ldr	r3, [r3, #0]
 8000a62:	f423 427f 	bic.w	r2, r3, #65280	@ 0xff00
 8000a66:	68bb      	ldr	r3, [r7, #8]
 8000a68:	601a      	str	r2, [r3, #0]
    *GPIOA_AFRL  |=  ((7 << (2*4)) | (7 << (3*4)));
 8000a6a:	68bb      	ldr	r3, [r7, #8]
 8000a6c:	681b      	ldr	r3, [r3, #0]
 8000a6e:	f443 42ee 	orr.w	r2, r3, #30464	@ 0x7700
 8000a72:	68bb      	ldr	r3, [r7, #8]
 8000a74:	601a      	str	r2, [r3, #0]

    uint32_t* USART2_BRR = (uint32_t*)(USART2_BASE_ADDR + 0x08);
 8000a76:	4b19      	ldr	r3, [pc, #100]	@ (8000adc <UART2_init+0xc4>)
 8000a78:	607b      	str	r3, [r7, #4]
    uint32_t* USART2_CR1 = (uint32_t*)(USART2_BASE_ADDR + 0x0C);
 8000a7a:	4b19      	ldr	r3, [pc, #100]	@ (8000ae0 <UART2_init+0xc8>)
 8000a7c:	603b      	str	r3, [r7, #0]

    *USART2_BRR = (8 << 4) | 11;   // 115200 @16MHz
 8000a7e:	687b      	ldr	r3, [r7, #4]
 8000a80:	228b      	movs	r2, #139	@ 0x8b
 8000a82:	601a      	str	r2, [r3, #0]

    *USART2_CR1 = 0;
 8000a84:	683b      	ldr	r3, [r7, #0]
 8000a86:	2200      	movs	r2, #0
 8000a88:	601a      	str	r2, [r3, #0]
    *USART2_CR1 |= (1 << 2);   // RE
 8000a8a:	683b      	ldr	r3, [r7, #0]
 8000a8c:	681b      	ldr	r3, [r3, #0]
 8000a8e:	f043 0204 	orr.w	r2, r3, #4
 8000a92:	683b      	ldr	r3, [r7, #0]
 8000a94:	601a      	str	r2, [r3, #0]
    *USART2_CR1 |= (1 << 3);   // TE
 8000a96:	683b      	ldr	r3, [r7, #0]
 8000a98:	681b      	ldr	r3, [r3, #0]
 8000a9a:	f043 0208 	orr.w	r2, r3, #8
 8000a9e:	683b      	ldr	r3, [r7, #0]
 8000aa0:	601a      	str	r2, [r3, #0]
    *USART2_CR1 |= (1 << 5);   // RXNEIE
 8000aa2:	683b      	ldr	r3, [r7, #0]
 8000aa4:	681b      	ldr	r3, [r3, #0]
 8000aa6:	f043 0220 	orr.w	r2, r3, #32
 8000aaa:	683b      	ldr	r3, [r7, #0]
 8000aac:	601a      	str	r2, [r3, #0]
    *USART2_CR1 |= (1 << 13);  // UE
 8000aae:	683b      	ldr	r3, [r7, #0]
 8000ab0:	681b      	ldr	r3, [r3, #0]
 8000ab2:	f443 5200 	orr.w	r2, r3, #8192	@ 0x2000
 8000ab6:	683b      	ldr	r3, [r7, #0]
 8000ab8:	601a      	str	r2, [r3, #0]

    NVIC_ISER1[0] = (1 << (USART2_IRQN - 32));
 8000aba:	4b0a      	ldr	r3, [pc, #40]	@ (8000ae4 <UART2_init+0xcc>)
 8000abc:	2240      	movs	r2, #64	@ 0x40
 8000abe:	601a      	str	r2, [r3, #0]
}
 8000ac0:	bf00      	nop
 8000ac2:	371c      	adds	r7, #28
 8000ac4:	46bd      	mov	sp, r7
 8000ac6:	f85d 7b04 	ldr.w	r7, [sp], #4
 8000aca:	4770      	bx	lr
 8000acc:	40023830 	.word	0x40023830
 8000ad0:	40023840 	.word	0x40023840
 8000ad4:	40020000 	.word	0x40020000
 8000ad8:	40020020 	.word	0x40020020
 8000adc:	40004408 	.word	0x40004408
 8000ae0:	4000440c 	.word	0x4000440c
 8000ae4:	e000e104 	.word	0xe000e104

08000ae8 <USART2_IRQHandler>:

    *DMA1_S5CR |= (1 << 0);    // EN = 1
}

void USART2_IRQHandler(void)
{
 8000ae8:	b580      	push	{r7, lr}
 8000aea:	b084      	sub	sp, #16
 8000aec:	af00      	add	r7, sp, #0
    volatile uint32_t* USART2_SR = (volatile uint32_t*)(USART2_BASE_ADDR + 0x00);
 8000aee:	4b0b      	ldr	r3, [pc, #44]	@ (8000b1c <USART2_IRQHandler+0x34>)
 8000af0:	60fb      	str	r3, [r7, #12]
    volatile uint32_t* USART2_DR = (volatile uint32_t*)(USART2_BASE_ADDR + 0x04);
 8000af2:	4b0b      	ldr	r3, [pc, #44]	@ (8000b20 <USART2_IRQHandler+0x38>)
 8000af4:	60bb      	str	r3, [r7, #8]

    if ((*USART2_SR >> 5) & 1)   // RXNE
 8000af6:	68fb      	ldr	r3, [r7, #12]
 8000af8:	681b      	ldr	r3, [r3, #0]
 8000afa:	095b      	lsrs	r3, r3, #5
 8000afc:	f003 0301 	and.w	r3, r3, #1
 8000b00:	2b00      	cmp	r3, #0
 8000b02:	d006      	beq.n	8000b12 <USART2_IRQHandler+0x2a>
    {
        uint8_t c = (uint8_t)(*USART2_DR & 0xFF);   // Clear RXNE
 8000b04:	68bb      	ldr	r3, [r7, #8]
 8000b06:	681b      	ldr	r3, [r3, #0]
 8000b08:	71fb      	strb	r3, [r7, #7]
        UART_Parse_Byte(c);
 8000b0a:	79fb      	ldrb	r3, [r7, #7]
 8000b0c:	4618      	mov	r0, r3
 8000b0e:	f000 f911 	bl	8000d34 <UART_Parse_Byte>
    }
}
 8000b12:	bf00      	nop
 8000b14:	3710      	adds	r7, #16
 8000b16:	46bd      	mov	sp, r7
 8000b18:	bd80      	pop	{r7, pc}
 8000b1a:	bf00      	nop
 8000b1c:	40004400 	.word	0x40004400
 8000b20:	40004404 	.word	0x40004404

08000b24 <UART2_Transmit>:
    while(((*USART_SR >> 7) & 1) == 0);   // TXE
    *USART_DR = data;
    while(((*USART_SR >> 6) & 1) == 0);   // TC
}
void UART2_Transmit(uint8_t data)
{
 8000b24:	b480      	push	{r7}
 8000b26:	b085      	sub	sp, #20
 8000b28:	af00      	add	r7, sp, #0
 8000b2a:	4603      	mov	r3, r0
 8000b2c:	71fb      	strb	r3, [r7, #7]
    uint32_t* USART_SR = (uint32_t*)(USART2_BASE_ADDR + 0x00);
 8000b2e:	4b0f      	ldr	r3, [pc, #60]	@ (8000b6c <UART2_Transmit+0x48>)
 8000b30:	60fb      	str	r3, [r7, #12]
    uint32_t* USART_DR = (uint32_t*)(USART2_BASE_ADDR + 0x04);
 8000b32:	4b0f      	ldr	r3, [pc, #60]	@ (8000b70 <UART2_Transmit+0x4c>)
 8000b34:	60bb      	str	r3, [r7, #8]

    while(((*USART_SR >> 7) & 1) == 0);   // TXE
 8000b36:	bf00      	nop
 8000b38:	68fb      	ldr	r3, [r7, #12]
 8000b3a:	681b      	ldr	r3, [r3, #0]
 8000b3c:	09db      	lsrs	r3, r3, #7
 8000b3e:	f003 0301 	and.w	r3, r3, #1
 8000b42:	2b00      	cmp	r3, #0
 8000b44:	d0f8      	beq.n	8000b38 <UART2_Transmit+0x14>
    *USART_DR = data;
 8000b46:	79fa      	ldrb	r2, [r7, #7]
 8000b48:	68bb      	ldr	r3, [r7, #8]
 8000b4a:	601a      	str	r2, [r3, #0]
    while(((*USART_SR >> 6) & 1) == 0);   // TC
 8000b4c:	bf00      	nop
 8000b4e:	68fb      	ldr	r3, [r7, #12]
 8000b50:	681b      	ldr	r3, [r3, #0]
 8000b52:	099b      	lsrs	r3, r3, #6
 8000b54:	f003 0301 	and.w	r3, r3, #1
 8000b58:	2b00      	cmp	r3, #0
 8000b5a:	d0f8      	beq.n	8000b4e <UART2_Transmit+0x2a>
}
 8000b5c:	bf00      	nop
 8000b5e:	bf00      	nop
 8000b60:	3714      	adds	r7, #20
 8000b62:	46bd      	mov	sp, r7
 8000b64:	f85d 7b04 	ldr.w	r7, [sp], #4
 8000b68:	4770      	bx	lr
 8000b6a:	bf00      	nop
 8000b6c:	40004400 	.word	0x40004400
 8000b70:	40004404 	.word	0x40004404

08000b74 <UART2_send_number>:
    }
    while (i--)
        UART1_Transmit(buf[i]);
}
void UART2_send_number(int num)
{
 8000b74:	b580      	push	{r7, lr}
 8000b76:	b086      	sub	sp, #24
 8000b78:	af00      	add	r7, sp, #0
 8000b7a:	6078      	str	r0, [r7, #4]
    char buf[12];
    int i = 0;
 8000b7c:	2300      	movs	r3, #0
 8000b7e:	617b      	str	r3, [r7, #20]
    if (num == 0) {
 8000b80:	687b      	ldr	r3, [r7, #4]
 8000b82:	2b00      	cmp	r3, #0
 8000b84:	d103      	bne.n	8000b8e <UART2_send_number+0x1a>
        UART2_Transmit('0');
 8000b86:	2030      	movs	r0, #48	@ 0x30
 8000b88:	f7ff ffcc 	bl	8000b24 <UART2_Transmit>
 8000b8c:	e038      	b.n	8000c00 <UART2_send_number+0x8c>
        return;
    }
    if (num < 0) {
 8000b8e:	687b      	ldr	r3, [r7, #4]
 8000b90:	2b00      	cmp	r3, #0
 8000b92:	da24      	bge.n	8000bde <UART2_send_number+0x6a>
        UART2_Transmit('-');
 8000b94:	202d      	movs	r0, #45	@ 0x2d
 8000b96:	f7ff ffc5 	bl	8000b24 <UART2_Transmit>
        num = -num;
 8000b9a:	687b      	ldr	r3, [r7, #4]
 8000b9c:	425b      	negs	r3, r3
 8000b9e:	607b      	str	r3, [r7, #4]
    }
    while (num > 0) {
 8000ba0:	e01d      	b.n	8000bde <UART2_send_number+0x6a>
        buf[i++] = (num % 10) + '0';
 8000ba2:	687a      	ldr	r2, [r7, #4]
 8000ba4:	4b18      	ldr	r3, [pc, #96]	@ (8000c08 <UART2_send_number+0x94>)
 8000ba6:	fb83 1302 	smull	r1, r3, r3, r2
 8000baa:	1099      	asrs	r1, r3, #2
 8000bac:	17d3      	asrs	r3, r2, #31
 8000bae:	1ac9      	subs	r1, r1, r3
 8000bb0:	460b      	mov	r3, r1
 8000bb2:	009b      	lsls	r3, r3, #2
 8000bb4:	440b      	add	r3, r1
 8000bb6:	005b      	lsls	r3, r3, #1
 8000bb8:	1ad1      	subs	r1, r2, r3
 8000bba:	b2ca      	uxtb	r2, r1
 8000bbc:	697b      	ldr	r3, [r7, #20]
 8000bbe:	1c59      	adds	r1, r3, #1
 8000bc0:	6179      	str	r1, [r7, #20]
 8000bc2:	3230      	adds	r2, #48	@ 0x30
 8000bc4:	b2d2      	uxtb	r2, r2
 8000bc6:	3318      	adds	r3, #24
 8000bc8:	443b      	add	r3, r7
 8000bca:	f803 2c10 	strb.w	r2, [r3, #-16]
        num /= 10;
 8000bce:	687b      	ldr	r3, [r7, #4]
 8000bd0:	4a0d      	ldr	r2, [pc, #52]	@ (8000c08 <UART2_send_number+0x94>)
 8000bd2:	fb82 1203 	smull	r1, r2, r2, r3
 8000bd6:	1092      	asrs	r2, r2, #2
 8000bd8:	17db      	asrs	r3, r3, #31
 8000bda:	1ad3      	subs	r3, r2, r3
 8000bdc:	607b      	str	r3, [r7, #4]
    while (num > 0) {
 8000bde:	687b      	ldr	r3, [r7, #4]
 8000be0:	2b00      	cmp	r3, #0
 8000be2:	dcde      	bgt.n	8000ba2 <UART2_send_number+0x2e>
    }
    while (i--)
 8000be4:	e007      	b.n	8000bf6 <UART2_send_number+0x82>
        UART2_Transmit(buf[i]);
 8000be6:	f107 0208 	add.w	r2, r7, #8
 8000bea:	697b      	ldr	r3, [r7, #20]
 8000bec:	4413      	add	r3, r2
 8000bee:	781b      	ldrb	r3, [r3, #0]
 8000bf0:	4618      	mov	r0, r3
 8000bf2:	f7ff ff97 	bl	8000b24 <UART2_Transmit>
    while (i--)
 8000bf6:	697b      	ldr	r3, [r7, #20]
 8000bf8:	1e5a      	subs	r2, r3, #1
 8000bfa:	617a      	str	r2, [r7, #20]
 8000bfc:	2b00      	cmp	r3, #0
 8000bfe:	d1f2      	bne.n	8000be6 <UART2_send_number+0x72>
}
 8000c00:	3718      	adds	r7, #24
 8000c02:	46bd      	mov	sp, r7
 8000c04:	bd80      	pop	{r7, pc}
 8000c06:	bf00      	nop
 8000c08:	66666667 	.word	0x66666667

08000c0c <UART2_print_log>:
        UART1_Transmit((uint8_t)msg[i]);
    }
}

void UART2_print_log(char *msg)
{
 8000c0c:	b580      	push	{r7, lr}
 8000c0e:	b084      	sub	sp, #16
 8000c10:	af00      	add	r7, sp, #0
 8000c12:	6078      	str	r0, [r7, #4]
    for (int i = 0; msg[i]; i++) {
 8000c14:	2300      	movs	r3, #0
 8000c16:	60fb      	str	r3, [r7, #12]
 8000c18:	e009      	b.n	8000c2e <UART2_print_log+0x22>
        UART2_Transmit((uint8_t)msg[i]);
 8000c1a:	68fb      	ldr	r3, [r7, #12]
 8000c1c:	687a      	ldr	r2, [r7, #4]
 8000c1e:	4413      	add	r3, r2
 8000c20:	781b      	ldrb	r3, [r3, #0]
 8000c22:	4618      	mov	r0, r3
 8000c24:	f7ff ff7e 	bl	8000b24 <UART2_Transmit>
    for (int i = 0; msg[i]; i++) {
 8000c28:	68fb      	ldr	r3, [r7, #12]
 8000c2a:	3301      	adds	r3, #1
 8000c2c:	60fb      	str	r3, [r7, #12]
 8000c2e:	68fb      	ldr	r3, [r7, #12]
 8000c30:	687a      	ldr	r2, [r7, #4]
 8000c32:	4413      	add	r3, r2
 8000c34:	781b      	ldrb	r3, [r3, #0]
 8000c36:	2b00      	cmp	r3, #0
 8000c38:	d1ef      	bne.n	8000c1a <UART2_print_log+0xe>
    }
}
 8000c3a:	bf00      	nop
 8000c3c:	bf00      	nop
 8000c3e:	3710      	adds	r7, #16
 8000c40:	46bd      	mov	sp, r7
 8000c42:	bd80      	pop	{r7, pc}

08000c44 <UART2_send_float>:
    UART1_Transmit('.');
    if (fp < 10) UART1_Transmit('0');
    UART1_send_number(fp);
}
void UART2_send_float(float v)
{
 8000c44:	b580      	push	{r7, lr}
 8000c46:	b084      	sub	sp, #16
 8000c48:	af00      	add	r7, sp, #0
 8000c4a:	ed87 0a01 	vstr	s0, [r7, #4]
    if (v < 0) {
 8000c4e:	edd7 7a01 	vldr	s15, [r7, #4]
 8000c52:	eef5 7ac0 	vcmpe.f32	s15, #0.0
 8000c56:	eef1 fa10 	vmrs	APSR_nzcv, fpscr
 8000c5a:	d508      	bpl.n	8000c6e <UART2_send_float+0x2a>
        UART2_Transmit('-');
 8000c5c:	202d      	movs	r0, #45	@ 0x2d
 8000c5e:	f7ff ff61 	bl	8000b24 <UART2_Transmit>
        v = -v;
 8000c62:	edd7 7a01 	vldr	s15, [r7, #4]
 8000c66:	eef1 7a67 	vneg.f32	s15, s15
 8000c6a:	edc7 7a01 	vstr	s15, [r7, #4]
    }

    int ip = (int)v;
 8000c6e:	edd7 7a01 	vldr	s15, [r7, #4]
 8000c72:	eefd 7ae7 	vcvt.s32.f32	s15, s15
 8000c76:	ee17 3a90 	vmov	r3, s15
 8000c7a:	60fb      	str	r3, [r7, #12]
    int fp = (int)((v - ip) * 100);
 8000c7c:	68fb      	ldr	r3, [r7, #12]
 8000c7e:	ee07 3a90 	vmov	s15, r3
 8000c82:	eef8 7ae7 	vcvt.f32.s32	s15, s15
 8000c86:	ed97 7a01 	vldr	s14, [r7, #4]
 8000c8a:	ee77 7a67 	vsub.f32	s15, s14, s15
 8000c8e:	ed9f 7a0e 	vldr	s14, [pc, #56]	@ 8000cc8 <UART2_send_float+0x84>
 8000c92:	ee67 7a87 	vmul.f32	s15, s15, s14
 8000c96:	eefd 7ae7 	vcvt.s32.f32	s15, s15
 8000c9a:	ee17 3a90 	vmov	r3, s15
 8000c9e:	60bb      	str	r3, [r7, #8]

    UART2_send_number(ip);
 8000ca0:	68f8      	ldr	r0, [r7, #12]
 8000ca2:	f7ff ff67 	bl	8000b74 <UART2_send_number>
    UART2_Transmit('.');
 8000ca6:	202e      	movs	r0, #46	@ 0x2e
 8000ca8:	f7ff ff3c 	bl	8000b24 <UART2_Transmit>
    if (fp < 10) UART2_Transmit('0');
 8000cac:	68bb      	ldr	r3, [r7, #8]
 8000cae:	2b09      	cmp	r3, #9
 8000cb0:	dc02      	bgt.n	8000cb8 <UART2_send_float+0x74>
 8000cb2:	2030      	movs	r0, #48	@ 0x30
 8000cb4:	f7ff ff36 	bl	8000b24 <UART2_Transmit>
    UART2_send_number(fp);
 8000cb8:	68b8      	ldr	r0, [r7, #8]
 8000cba:	f7ff ff5b 	bl	8000b74 <UART2_send_number>
}
 8000cbe:	bf00      	nop
 8000cc0:	3710      	adds	r7, #16
 8000cc2:	46bd      	mov	sp, r7
 8000cc4:	bd80      	pop	{r7, pc}
 8000cc6:	bf00      	nop
 8000cc8:	42c80000 	.word	0x42c80000

08000ccc <UART_Parse_Command>:
    *speed_out = speed;
    return 1;
}

void UART_Parse_Command(char *cmd)
{
 8000ccc:	b580      	push	{r7, lr}
 8000cce:	b084      	sub	sp, #16
 8000cd0:	af00      	add	r7, sp, #0
 8000cd2:	6078      	str	r0, [r7, #4]
    //#speed:60;;
    if (strncmp(cmd, "#RPM:", 5) == 0) {
 8000cd4:	2205      	movs	r2, #5
 8000cd6:	4915      	ldr	r1, [pc, #84]	@ (8000d2c <UART_Parse_Command+0x60>)
 8000cd8:	6878      	ldr	r0, [r7, #4]
 8000cda:	f000 fa67 	bl	80011ac <strncmp>
 8000cde:	4603      	mov	r3, r0
 8000ce0:	2b00      	cmp	r3, #0
 8000ce2:	d10b      	bne.n	8000cfc <UART_Parse_Command+0x30>
        int speed = atoi(cmd + 5);
 8000ce4:	687b      	ldr	r3, [r7, #4]
 8000ce6:	3305      	adds	r3, #5
 8000ce8:	4618      	mov	r0, r3
 8000cea:	f000 f9d6 	bl	800109a <atoi>
 8000cee:	60b8      	str	r0, [r7, #8]
        Servo_Speed_Set(speed);
 8000cf0:	68bb      	ldr	r3, [r7, #8]
 8000cf2:	b29b      	uxth	r3, r3
 8000cf4:	4618      	mov	r0, r3
 8000cf6:	f7ff fdc7 	bl	8000888 <Servo_Speed_Set>
        return;
 8000cfa:	e013      	b.n	8000d24 <UART_Parse_Command+0x58>
    }

    if (strncmp(cmd, "#STR:", 5) == 0) {
 8000cfc:	2205      	movs	r2, #5
 8000cfe:	490c      	ldr	r1, [pc, #48]	@ (8000d30 <UART_Parse_Command+0x64>)
 8000d00:	6878      	ldr	r0, [r7, #4]
 8000d02:	f000 fa53 	bl	80011ac <strncmp>
 8000d06:	4603      	mov	r3, r0
 8000d08:	2b00      	cmp	r3, #0
 8000d0a:	d10b      	bne.n	8000d24 <UART_Parse_Command+0x58>
        int steer = atoi(cmd + 5);
 8000d0c:	687b      	ldr	r3, [r7, #4]
 8000d0e:	3305      	adds	r3, #5
 8000d10:	4618      	mov	r0, r3
 8000d12:	f000 f9c2 	bl	800109a <atoi>
 8000d16:	60f8      	str	r0, [r7, #12]
        Servo_Steering_Set(steer);
 8000d18:	68fb      	ldr	r3, [r7, #12]
 8000d1a:	b29b      	uxth	r3, r3
 8000d1c:	4618      	mov	r0, r3
 8000d1e:	f7ff fdd1 	bl	80008c4 <Servo_Steering_Set>
        return;
 8000d22:	bf00      	nop
    }
}
 8000d24:	3710      	adds	r7, #16
 8000d26:	46bd      	mov	sp, r7
 8000d28:	bd80      	pop	{r7, pc}
 8000d2a:	bf00      	nop
 8000d2c:	08001250 	.word	0x08001250
 8000d30:	08001258 	.word	0x08001258

08000d34 <UART_Parse_Byte>:

static char cmd_buf[64];
static uint8_t cmd_idx = 0;

void UART_Parse_Byte(uint8_t c)
{
 8000d34:	b580      	push	{r7, lr}
 8000d36:	b082      	sub	sp, #8
 8000d38:	af00      	add	r7, sp, #0
 8000d3a:	4603      	mov	r3, r0
 8000d3c:	71fb      	strb	r3, [r7, #7]
    if (c == '#') {
 8000d3e:	79fb      	ldrb	r3, [r7, #7]
 8000d40:	2b23      	cmp	r3, #35	@ 0x23
 8000d42:	d10d      	bne.n	8000d60 <UART_Parse_Byte+0x2c>
        cmd_idx = 0;
 8000d44:	4b23      	ldr	r3, [pc, #140]	@ (8000dd4 <UART_Parse_Byte+0xa0>)
 8000d46:	2200      	movs	r2, #0
 8000d48:	701a      	strb	r2, [r3, #0]
        cmd_buf[cmd_idx++] = c;
 8000d4a:	4b22      	ldr	r3, [pc, #136]	@ (8000dd4 <UART_Parse_Byte+0xa0>)
 8000d4c:	781b      	ldrb	r3, [r3, #0]
 8000d4e:	1c5a      	adds	r2, r3, #1
 8000d50:	b2d1      	uxtb	r1, r2
 8000d52:	4a20      	ldr	r2, [pc, #128]	@ (8000dd4 <UART_Parse_Byte+0xa0>)
 8000d54:	7011      	strb	r1, [r2, #0]
 8000d56:	4619      	mov	r1, r3
 8000d58:	4a1f      	ldr	r2, [pc, #124]	@ (8000dd8 <UART_Parse_Byte+0xa4>)
 8000d5a:	79fb      	ldrb	r3, [r7, #7]
 8000d5c:	5453      	strb	r3, [r2, r1]
        return;
 8000d5e:	e035      	b.n	8000dcc <UART_Parse_Byte+0x98>
    }

    if (cmd_idx == 0)
 8000d60:	4b1c      	ldr	r3, [pc, #112]	@ (8000dd4 <UART_Parse_Byte+0xa0>)
 8000d62:	781b      	ldrb	r3, [r3, #0]
 8000d64:	2b00      	cmp	r3, #0
 8000d66:	d030      	beq.n	8000dca <UART_Parse_Byte+0x96>
        return;

    if (cmd_idx < sizeof(cmd_buf) - 1) {
 8000d68:	4b1a      	ldr	r3, [pc, #104]	@ (8000dd4 <UART_Parse_Byte+0xa0>)
 8000d6a:	781b      	ldrb	r3, [r3, #0]
 8000d6c:	2b3e      	cmp	r3, #62	@ 0x3e
 8000d6e:	d828      	bhi.n	8000dc2 <UART_Parse_Byte+0x8e>
        cmd_buf[cmd_idx++] = c;
 8000d70:	4b18      	ldr	r3, [pc, #96]	@ (8000dd4 <UART_Parse_Byte+0xa0>)
 8000d72:	781b      	ldrb	r3, [r3, #0]
 8000d74:	1c5a      	adds	r2, r3, #1
 8000d76:	b2d1      	uxtb	r1, r2
 8000d78:	4a16      	ldr	r2, [pc, #88]	@ (8000dd4 <UART_Parse_Byte+0xa0>)
 8000d7a:	7011      	strb	r1, [r2, #0]
 8000d7c:	4619      	mov	r1, r3
 8000d7e:	4a16      	ldr	r2, [pc, #88]	@ (8000dd8 <UART_Parse_Byte+0xa4>)
 8000d80:	79fb      	ldrb	r3, [r7, #7]
 8000d82:	5453      	strb	r3, [r2, r1]

        if (cmd_idx >= 2 && cmd_buf[cmd_idx - 1] == ';' && cmd_buf[cmd_idx - 2] == ';') {
 8000d84:	4b13      	ldr	r3, [pc, #76]	@ (8000dd4 <UART_Parse_Byte+0xa0>)
 8000d86:	781b      	ldrb	r3, [r3, #0]
 8000d88:	2b01      	cmp	r3, #1
 8000d8a:	d91f      	bls.n	8000dcc <UART_Parse_Byte+0x98>
 8000d8c:	4b11      	ldr	r3, [pc, #68]	@ (8000dd4 <UART_Parse_Byte+0xa0>)
 8000d8e:	781b      	ldrb	r3, [r3, #0]
 8000d90:	3b01      	subs	r3, #1
 8000d92:	4a11      	ldr	r2, [pc, #68]	@ (8000dd8 <UART_Parse_Byte+0xa4>)
 8000d94:	5cd3      	ldrb	r3, [r2, r3]
 8000d96:	2b3b      	cmp	r3, #59	@ 0x3b
 8000d98:	d118      	bne.n	8000dcc <UART_Parse_Byte+0x98>
 8000d9a:	4b0e      	ldr	r3, [pc, #56]	@ (8000dd4 <UART_Parse_Byte+0xa0>)
 8000d9c:	781b      	ldrb	r3, [r3, #0]
 8000d9e:	3b02      	subs	r3, #2
 8000da0:	4a0d      	ldr	r2, [pc, #52]	@ (8000dd8 <UART_Parse_Byte+0xa4>)
 8000da2:	5cd3      	ldrb	r3, [r2, r3]
 8000da4:	2b3b      	cmp	r3, #59	@ 0x3b
 8000da6:	d111      	bne.n	8000dcc <UART_Parse_Byte+0x98>
            cmd_buf[cmd_idx] = '\0';
 8000da8:	4b0a      	ldr	r3, [pc, #40]	@ (8000dd4 <UART_Parse_Byte+0xa0>)
 8000daa:	781b      	ldrb	r3, [r3, #0]
 8000dac:	461a      	mov	r2, r3
 8000dae:	4b0a      	ldr	r3, [pc, #40]	@ (8000dd8 <UART_Parse_Byte+0xa4>)
 8000db0:	2100      	movs	r1, #0
 8000db2:	5499      	strb	r1, [r3, r2]
            UART_Parse_Command(cmd_buf);
 8000db4:	4808      	ldr	r0, [pc, #32]	@ (8000dd8 <UART_Parse_Byte+0xa4>)
 8000db6:	f7ff ff89 	bl	8000ccc <UART_Parse_Command>
            cmd_idx = 0;
 8000dba:	4b06      	ldr	r3, [pc, #24]	@ (8000dd4 <UART_Parse_Byte+0xa0>)
 8000dbc:	2200      	movs	r2, #0
 8000dbe:	701a      	strb	r2, [r3, #0]
 8000dc0:	e004      	b.n	8000dcc <UART_Parse_Byte+0x98>
        }
    }
    else {
        cmd_idx = 0;
 8000dc2:	4b04      	ldr	r3, [pc, #16]	@ (8000dd4 <UART_Parse_Byte+0xa0>)
 8000dc4:	2200      	movs	r2, #0
 8000dc6:	701a      	strb	r2, [r3, #0]
 8000dc8:	e000      	b.n	8000dcc <UART_Parse_Byte+0x98>
        return;
 8000dca:	bf00      	nop
    }
}
 8000dcc:	3708      	adds	r7, #8
 8000dce:	46bd      	mov	sp, r7
 8000dd0:	bd80      	pop	{r7, pc}
 8000dd2:	bf00      	nop
 8000dd4:	200000b0 	.word	0x200000b0
 8000dd8:	20000070 	.word	0x20000070

08000ddc <Watchdog_Init>:
#include "mydriver.h"

#define IWDG_BASE_ADDR 0x40003000

void Watchdog_Init()
{
 8000ddc:	b480      	push	{r7}
 8000dde:	b085      	sub	sp, #20
 8000de0:	af00      	add	r7, sp, #0
    volatile uint32_t* IWDG_KR  = (uint32_t*)(IWDG_BASE_ADDR + 0x00);
 8000de2:	4b17      	ldr	r3, [pc, #92]	@ (8000e40 <Watchdog_Init+0x64>)
 8000de4:	60fb      	str	r3, [r7, #12]
    volatile uint32_t* IWDG_PR  = (uint32_t*)(IWDG_BASE_ADDR + 0x04);
 8000de6:	4b17      	ldr	r3, [pc, #92]	@ (8000e44 <Watchdog_Init+0x68>)
 8000de8:	60bb      	str	r3, [r7, #8]
    volatile uint32_t* IWDG_RLR = (uint32_t*)(IWDG_BASE_ADDR + 0x08);
 8000dea:	4b17      	ldr	r3, [pc, #92]	@ (8000e48 <Watchdog_Init+0x6c>)
 8000dec:	607b      	str	r3, [r7, #4]
    volatile uint32_t* IWDG_SR  = (uint32_t*)(IWDG_BASE_ADDR + 0x0C);
 8000dee:	4b17      	ldr	r3, [pc, #92]	@ (8000e4c <Watchdog_Init+0x70>)
 8000df0:	603b      	str	r3, [r7, #0]


    *IWDG_KR = 0x5555; 				//Unlock
 8000df2:	68fb      	ldr	r3, [r7, #12]
 8000df4:	f245 5255 	movw	r2, #21845	@ 0x5555
 8000df8:	601a      	str	r2, [r3, #0]
    while (*IWDG_SR & (1 << 0));	//Wait prescaler ready
 8000dfa:	bf00      	nop
 8000dfc:	683b      	ldr	r3, [r7, #0]
 8000dfe:	681b      	ldr	r3, [r3, #0]
 8000e00:	f003 0301 	and.w	r3, r3, #1
 8000e04:	2b00      	cmp	r3, #0
 8000e06:	d1f9      	bne.n	8000dfc <Watchdog_Init+0x20>
    *IWDG_PR = 0x06;    			// Prescaler /256
 8000e08:	68bb      	ldr	r3, [r7, #8]
 8000e0a:	2206      	movs	r2, #6
 8000e0c:	601a      	str	r2, [r3, #0]
    while (*IWDG_SR & (1 << 1));	//Wait reload ready
 8000e0e:	bf00      	nop
 8000e10:	683b      	ldr	r3, [r7, #0]
 8000e12:	681b      	ldr	r3, [r3, #0]
 8000e14:	f003 0302 	and.w	r3, r3, #2
 8000e18:	2b00      	cmp	r3, #0
 8000e1a:	d1f9      	bne.n	8000e10 <Watchdog_Init+0x34>
    *IWDG_RLR = 600;				//Set reload ~16s
 8000e1c:	687b      	ldr	r3, [r7, #4]
 8000e1e:	f44f 7216 	mov.w	r2, #600	@ 0x258
 8000e22:	601a      	str	r2, [r3, #0]
    *IWDG_KR = 0xAAAA;				//Reload counter
 8000e24:	68fb      	ldr	r3, [r7, #12]
 8000e26:	f64a 22aa 	movw	r2, #43690	@ 0xaaaa
 8000e2a:	601a      	str	r2, [r3, #0]
    *IWDG_KR = 0xCCCC;				//Enable watchdog
 8000e2c:	68fb      	ldr	r3, [r7, #12]
 8000e2e:	f64c 42cc 	movw	r2, #52428	@ 0xcccc
 8000e32:	601a      	str	r2, [r3, #0]
}
 8000e34:	bf00      	nop
 8000e36:	3714      	adds	r7, #20
 8000e38:	46bd      	mov	sp, r7
 8000e3a:	f85d 7b04 	ldr.w	r7, [sp], #4
 8000e3e:	4770      	bx	lr
 8000e40:	40003000 	.word	0x40003000
 8000e44:	40003004 	.word	0x40003004
 8000e48:	40003008 	.word	0x40003008
 8000e4c:	4000300c 	.word	0x4000300c

08000e50 <Feed_WD>:

void Feed_WD()
{
 8000e50:	b480      	push	{r7}
 8000e52:	b083      	sub	sp, #12
 8000e54:	af00      	add	r7, sp, #0
	volatile uint32_t* IWDG_KR = (uint32_t*)(IWDG_BASE_ADDR + 0x00);
 8000e56:	4b06      	ldr	r3, [pc, #24]	@ (8000e70 <Feed_WD+0x20>)
 8000e58:	607b      	str	r3, [r7, #4]
	*IWDG_KR = 0xAAAA;				//Reload watchdog counter
 8000e5a:	687b      	ldr	r3, [r7, #4]
 8000e5c:	f64a 22aa 	movw	r2, #43690	@ 0xaaaa
 8000e60:	601a      	str	r2, [r3, #0]
}
 8000e62:	bf00      	nop
 8000e64:	370c      	adds	r7, #12
 8000e66:	46bd      	mov	sp, r7
 8000e68:	f85d 7b04 	ldr.w	r7, [sp], #4
 8000e6c:	4770      	bx	lr
 8000e6e:	bf00      	nop
 8000e70:	40003000 	.word	0x40003000

08000e74 <FPU_Enable>:
#include <stdint.h>
#include "main.h"

/* Enable FPU (Cortex-M4/M7) */
static inline void FPU_Enable(void)
{
 8000e74:	b480      	push	{r7}
 8000e76:	af00      	add	r7, sp, #0
    /* Set CP10 and CP11 to Full Access */
    *((volatile uint32_t*)0xE000ED88) |= (0xFU << 20);
 8000e78:	4b07      	ldr	r3, [pc, #28]	@ (8000e98 <FPU_Enable+0x24>)
 8000e7a:	681b      	ldr	r3, [r3, #0]
 8000e7c:	4a06      	ldr	r2, [pc, #24]	@ (8000e98 <FPU_Enable+0x24>)
 8000e7e:	f443 0370 	orr.w	r3, r3, #15728640	@ 0xf00000
 8000e82:	6013      	str	r3, [r2, #0]
    __asm volatile("DSB");
 8000e84:	f3bf 8f4f 	dsb	sy
    __asm volatile("ISB");
 8000e88:	f3bf 8f6f 	isb	sy
}
 8000e8c:	bf00      	nop
 8000e8e:	46bd      	mov	sp, r7
 8000e90:	f85d 7b04 	ldr.w	r7, [sp], #4
 8000e94:	4770      	bx	lr
 8000e96:	bf00      	nop
 8000e98:	e000ed88 	.word	0xe000ed88

08000e9c <main>:
uint8_t imu_available = 0;
extern volatile uint32_t ms_tick;
extern uint32_t SystemCoreClock;

int main(void)
{
 8000e9c:	b580      	push	{r7, lr}
 8000e9e:	b088      	sub	sp, #32
 8000ea0:	af00      	add	r7, sp, #0
    FPU_Enable();
 8000ea2:	f7ff ffe7 	bl	8000e74 <FPU_Enable>

#if 1
    UART2_init();
 8000ea6:	f7ff fdb7 	bl	8000a18 <UART2_init>
    I2C1_Master_Init();
 8000eaa:	f7ff fa6b 	bl	8000384 <I2C1_Master_Init>
    PWM_Init();
 8000eae:	f7ff fc41 	bl	8000734 <PWM_Init>
    Timer3_Init();
 8000eb2:	f7ff fd71 	bl	8000998 <Timer3_Init>
    SysTick_Init(16000000);
 8000eb6:	4858      	ldr	r0, [pc, #352]	@ (8001018 <main+0x17c>)
 8000eb8:	f7ff fd22 	bl	8000900 <SysTick_Init>

    UART2_print_log("\r\n");
 8000ebc:	4857      	ldr	r0, [pc, #348]	@ (800101c <main+0x180>)
 8000ebe:	f7ff fea5 	bl	8000c0c <UART2_print_log>
    UART2_print_log("BNO055 scan...\r\n");
 8000ec2:	4857      	ldr	r0, [pc, #348]	@ (8001020 <main+0x184>)
 8000ec4:	f7ff fea2 	bl	8000c0c <UART2_print_log>
    uint8_t id = BNO055_ReadReg(BNO055_CHIP_ID);
 8000ec8:	2000      	movs	r0, #0
 8000eca:	f7ff f9e7 	bl	800029c <BNO055_ReadReg>
 8000ece:	4603      	mov	r3, r0
 8000ed0:	77fb      	strb	r3, [r7, #31]
    UART2_print_log("CHIP_ID=");
 8000ed2:	4854      	ldr	r0, [pc, #336]	@ (8001024 <main+0x188>)
 8000ed4:	f7ff fe9a 	bl	8000c0c <UART2_print_log>
    UART2_send_number(id);
 8000ed8:	7ffb      	ldrb	r3, [r7, #31]
 8000eda:	4618      	mov	r0, r3
 8000edc:	f7ff fe4a 	bl	8000b74 <UART2_send_number>
    UART2_print_log("\r\n");
 8000ee0:	484e      	ldr	r0, [pc, #312]	@ (800101c <main+0x180>)
 8000ee2:	f7ff fe93 	bl	8000c0c <UART2_print_log>
    if (id != BNO055_CHIP_ID_VAL) {
 8000ee6:	7ffb      	ldrb	r3, [r7, #31]
 8000ee8:	2ba0      	cmp	r3, #160	@ 0xa0
 8000eea:	d006      	beq.n	8000efa <main+0x5e>
        UART2_print_log("BNO055 not found, degraded mode\r\n");
 8000eec:	484e      	ldr	r0, [pc, #312]	@ (8001028 <main+0x18c>)
 8000eee:	f7ff fe8d 	bl	8000c0c <UART2_print_log>
        imu_available = 0;
 8000ef2:	4b4e      	ldr	r3, [pc, #312]	@ (800102c <main+0x190>)
 8000ef4:	2200      	movs	r2, #0
 8000ef6:	701a      	strb	r2, [r3, #0]
 8000ef8:	e002      	b.n	8000f00 <main+0x64>
    } else {
        imu_available = 1;
 8000efa:	4b4c      	ldr	r3, [pc, #304]	@ (800102c <main+0x190>)
 8000efc:	2201      	movs	r2, #1
 8000efe:	701a      	strb	r2, [r3, #0]
    }
    UART2_print_log("BNO055 __init__...\r\n");
 8000f00:	484b      	ldr	r0, [pc, #300]	@ (8001030 <main+0x194>)
 8000f02:	f7ff fe83 	bl	8000c0c <UART2_print_log>
    BNO055_Init();
 8000f06:	f7ff f9b1 	bl	800026c <BNO055_Init>

    uint8_t as_stat = AS5600_ReadStatus();
 8000f0a:	f7ff f963 	bl	80001d4 <AS5600_ReadStatus>
 8000f0e:	4603      	mov	r3, r0
 8000f10:	77bb      	strb	r3, [r7, #30]
    UART2_print_log("AS5600 STATUS=");
 8000f12:	4848      	ldr	r0, [pc, #288]	@ (8001034 <main+0x198>)
 8000f14:	f7ff fe7a 	bl	8000c0c <UART2_print_log>
    UART2_send_number(as_stat);
 8000f18:	7fbb      	ldrb	r3, [r7, #30]
 8000f1a:	4618      	mov	r0, r3
 8000f1c:	f7ff fe2a 	bl	8000b74 <UART2_send_number>
    UART2_print_log("\r\n");
 8000f20:	483e      	ldr	r0, [pc, #248]	@ (800101c <main+0x180>)
 8000f22:	f7ff fe73 	bl	8000c0c <UART2_print_log>
    Watchdog_Init();
 8000f26:	f7ff ff59 	bl	8000ddc <Watchdog_Init>
    Servo_Speed_Set(1500);
 8000f2a:	f240 50dc 	movw	r0, #1500	@ 0x5dc
 8000f2e:	f7ff fcab 	bl	8000888 <Servo_Speed_Set>
    Delay_t(2000);
 8000f32:	f44f 60fa 	mov.w	r0, #2000	@ 0x7d0
 8000f36:	f7ff fd05 	bl	8000944 <Delay_t>
#endif
#if 1
    Servo_Speed_Set(1600);
 8000f3a:	f44f 60c8 	mov.w	r0, #1600	@ 0x640
 8000f3e:	f7ff fca3 	bl	8000888 <Servo_Speed_Set>
#endif
    while (1)
    {

#if 1
        if (imu_available) {
 8000f42:	4b3a      	ldr	r3, [pc, #232]	@ (800102c <main+0x190>)
 8000f44:	781b      	ldrb	r3, [r3, #0]
 8000f46:	2b00      	cmp	r3, #0
 8000f48:	d04f      	beq.n	8000fea <main+0x14e>
            int16_t ex, ey, ez;
            float yaw, roll, pitch;

            BNO055_ReadEuler_raw(&ex, &ey, &ez);
 8000f4a:	1dba      	adds	r2, r7, #6
 8000f4c:	f107 0108 	add.w	r1, r7, #8
 8000f50:	f107 030a 	add.w	r3, r7, #10
 8000f54:	4618      	mov	r0, r3
 8000f56:	f7ff f9b4 	bl	80002c2 <BNO055_ReadEuler_raw>

            yaw   = ex / 16.0f;
 8000f5a:	f9b7 300a 	ldrsh.w	r3, [r7, #10]
 8000f5e:	ee07 3a90 	vmov	s15, r3
 8000f62:	eeb8 7ae7 	vcvt.f32.s32	s14, s15
 8000f66:	eef3 6a00 	vmov.f32	s13, #48	@ 0x41800000  16.0
 8000f6a:	eec7 7a26 	vdiv.f32	s15, s14, s13
 8000f6e:	edc7 7a06 	vstr	s15, [r7, #24]
            roll  = ey / 16.0f;
 8000f72:	f9b7 3008 	ldrsh.w	r3, [r7, #8]
 8000f76:	ee07 3a90 	vmov	s15, r3
 8000f7a:	eeb8 7ae7 	vcvt.f32.s32	s14, s15
 8000f7e:	eef3 6a00 	vmov.f32	s13, #48	@ 0x41800000  16.0
 8000f82:	eec7 7a26 	vdiv.f32	s15, s14, s13
 8000f86:	edc7 7a05 	vstr	s15, [r7, #20]
            pitch = ez / 16.0f;
 8000f8a:	f9b7 3006 	ldrsh.w	r3, [r7, #6]
 8000f8e:	ee07 3a90 	vmov	s15, r3
 8000f92:	eeb8 7ae7 	vcvt.f32.s32	s14, s15
 8000f96:	eef3 6a00 	vmov.f32	s13, #48	@ 0x41800000  16.0
 8000f9a:	eec7 7a26 	vdiv.f32	s15, s14, s13
 8000f9e:	edc7 7a04 	vstr	s15, [r7, #16]

            UART2_print_log("@IMU:");
 8000fa2:	4825      	ldr	r0, [pc, #148]	@ (8001038 <main+0x19c>)
 8000fa4:	f7ff fe32 	bl	8000c0c <UART2_print_log>
            UART2_send_float(yaw);
 8000fa8:	ed97 0a06 	vldr	s0, [r7, #24]
 8000fac:	f7ff fe4a 	bl	8000c44 <UART2_send_float>
            UART2_print_log(",");
 8000fb0:	4822      	ldr	r0, [pc, #136]	@ (800103c <main+0x1a0>)
 8000fb2:	f7ff fe2b 	bl	8000c0c <UART2_print_log>
            UART2_send_float(pitch);
 8000fb6:	ed97 0a04 	vldr	s0, [r7, #16]
 8000fba:	f7ff fe43 	bl	8000c44 <UART2_send_float>
            UART2_print_log(",");
 8000fbe:	481f      	ldr	r0, [pc, #124]	@ (800103c <main+0x1a0>)
 8000fc0:	f7ff fe24 	bl	8000c0c <UART2_print_log>
            UART2_send_float(roll);
 8000fc4:	ed97 0a05 	vldr	s0, [r7, #20]
 8000fc8:	f7ff fe3c 	bl	8000c44 <UART2_send_float>
            UART2_print_log(";;");
 8000fcc:	481c      	ldr	r0, [pc, #112]	@ (8001040 <main+0x1a4>)
 8000fce:	f7ff fe1d 	bl	8000c0c <UART2_print_log>
            UART2_print_log("\r\n");
 8000fd2:	4812      	ldr	r0, [pc, #72]	@ (800101c <main+0x180>)
 8000fd4:	f7ff fe1a 	bl	8000c0c <UART2_print_log>

            IMU_HealthCheck(ex, ey, ez);
 8000fd8:	f9b7 300a 	ldrsh.w	r3, [r7, #10]
 8000fdc:	f9b7 1008 	ldrsh.w	r1, [r7, #8]
 8000fe0:	f9b7 2006 	ldrsh.w	r2, [r7, #6]
 8000fe4:	4618      	mov	r0, r3
 8000fe6:	f7ff f99b 	bl	8000320 <IMU_HealthCheck>
        UART2_print_log("\r\n");
        Feed_WD();
        Delay_t(10);
#endif
#if 1
        float deg = AS5600_ReadAngleDeg();
 8000fea:	f7ff f91f 	bl	800022c <AS5600_ReadAngleDeg>
 8000fee:	ed87 0a03 	vstr	s0, [r7, #12]
        UART2_print_log("@RPM:");
 8000ff2:	4814      	ldr	r0, [pc, #80]	@ (8001044 <main+0x1a8>)
 8000ff4:	f7ff fe0a 	bl	8000c0c <UART2_print_log>
        UART2_send_float(deg);
 8000ff8:	ed97 0a03 	vldr	s0, [r7, #12]
 8000ffc:	f7ff fe22 	bl	8000c44 <UART2_send_float>
        UART2_print_log(";;");
 8001000:	480f      	ldr	r0, [pc, #60]	@ (8001040 <main+0x1a4>)
 8001002:	f7ff fe03 	bl	8000c0c <UART2_print_log>
        UART2_print_log("\r\n");
 8001006:	4805      	ldr	r0, [pc, #20]	@ (800101c <main+0x180>)
 8001008:	f7ff fe00 	bl	8000c0c <UART2_print_log>
        Feed_WD();
 800100c:	f7ff ff20 	bl	8000e50 <Feed_WD>
        Delay_t(100);
 8001010:	2064      	movs	r0, #100	@ 0x64
 8001012:	f7ff fc97 	bl	8000944 <Delay_t>
    {
 8001016:	e794      	b.n	8000f42 <main+0xa6>
 8001018:	00f42400 	.word	0x00f42400
 800101c:	08001260 	.word	0x08001260
 8001020:	08001264 	.word	0x08001264
 8001024:	08001278 	.word	0x08001278
 8001028:	08001284 	.word	0x08001284
 800102c:	200000b1 	.word	0x200000b1
 8001030:	080012a8 	.word	0x080012a8
 8001034:	080012c0 	.word	0x080012c0
 8001038:	080012d0 	.word	0x080012d0
 800103c:	080012d8 	.word	0x080012d8
 8001040:	080012dc 	.word	0x080012dc
 8001044:	080012e0 	.word	0x080012e0

08001048 <Reset_Handler>:

  .section .text.Reset_Handler
  .weak Reset_Handler
  .type Reset_Handler, %function
Reset_Handler:
  ldr   r0, =_estack
 8001048:	480d      	ldr	r0, [pc, #52]	@ (8001080 <LoopForever+0x2>)
  mov   sp, r0          /* set stack pointer */
 800104a:	4685      	mov	sp, r0
/* Call the clock system initialization function.*/
  bl  SystemInit
 800104c:	f3af 8000 	nop.w

/* Copy the data segment initializers from flash to SRAM */
  ldr r0, =_sdata
 8001050:	480c      	ldr	r0, [pc, #48]	@ (8001084 <LoopForever+0x6>)
  ldr r1, =_edata
 8001052:	490d      	ldr	r1, [pc, #52]	@ (8001088 <LoopForever+0xa>)
  ldr r2, =_sidata
 8001054:	4a0d      	ldr	r2, [pc, #52]	@ (800108c <LoopForever+0xe>)
  movs r3, #0
 8001056:	2300      	movs	r3, #0
  b LoopCopyDataInit
 8001058:	e002      	b.n	8001060 <LoopCopyDataInit>

0800105a <CopyDataInit>:

CopyDataInit:
  ldr r4, [r2, r3]
 800105a:	58d4      	ldr	r4, [r2, r3]
  str r4, [r0, r3]
 800105c:	50c4      	str	r4, [r0, r3]
  adds r3, r3, #4
 800105e:	3304      	adds	r3, #4

08001060 <LoopCopyDataInit>:

LoopCopyDataInit:
  adds r4, r0, r3
 8001060:	18c4      	adds	r4, r0, r3
  cmp r4, r1
 8001062:	428c      	cmp	r4, r1
  bcc CopyDataInit
 8001064:	d3f9      	bcc.n	800105a <CopyDataInit>

/* Zero fill the bss segment. */
  ldr r2, =_sbss
 8001066:	4a0a      	ldr	r2, [pc, #40]	@ (8001090 <LoopForever+0x12>)
  ldr r4, =_ebss
 8001068:	4c0a      	ldr	r4, [pc, #40]	@ (8001094 <LoopForever+0x16>)
  movs r3, #0
 800106a:	2300      	movs	r3, #0
  b LoopFillZerobss
 800106c:	e001      	b.n	8001072 <LoopFillZerobss>

0800106e <FillZerobss>:

FillZerobss:
  str  r3, [r2]
 800106e:	6013      	str	r3, [r2, #0]
  adds r2, r2, #4
 8001070:	3204      	adds	r2, #4

08001072 <LoopFillZerobss>:

LoopFillZerobss:
  cmp r2, r4
 8001072:	42a2      	cmp	r2, r4
  bcc FillZerobss
 8001074:	d3fb      	bcc.n	800106e <FillZerobss>


/* Call static constructors */
  bl __libc_init_array
 8001076:	f000 f8b1 	bl	80011dc <__libc_init_array>
/* Call the application's entry point.*/

  bl main
 800107a:	f7ff ff0f 	bl	8000e9c <main>

0800107e <LoopForever>:

LoopForever:
  b LoopForever
 800107e:	e7fe      	b.n	800107e <LoopForever>
  ldr   r0, =_estack
 8001080:	20018000 	.word	0x20018000
  ldr r0, =_sdata
 8001084:	20000000 	.word	0x20000000
  ldr r1, =_edata
 8001088:	20000050 	.word	0x20000050
  ldr r2, =_sidata
 800108c:	080013f0 	.word	0x080013f0
  ldr r2, =_sbss
 8001090:	20000050 	.word	0x20000050
  ldr r4, =_ebss
 8001094:	200001ec 	.word	0x200001ec

08001098 <ADC_IRQHandler>:
 * @retval : None
*/
  .section .text.Default_Handler,"ax",%progbits
Default_Handler:
Infinite_Loop:
  b Infinite_Loop
 8001098:	e7fe      	b.n	8001098 <ADC_IRQHandler>

0800109a <atoi>:
 800109a:	220a      	movs	r2, #10
 800109c:	2100      	movs	r1, #0
 800109e:	f000 b87b 	b.w	8001198 <strtol>
	...

080010a4 <_strtol_l.isra.0>:
 80010a4:	2b24      	cmp	r3, #36	@ 0x24
 80010a6:	e92d 47f0 	stmdb	sp!, {r4, r5, r6, r7, r8, r9, sl, lr}
 80010aa:	4686      	mov	lr, r0
 80010ac:	4690      	mov	r8, r2
 80010ae:	d801      	bhi.n	80010b4 <_strtol_l.isra.0+0x10>
 80010b0:	2b01      	cmp	r3, #1
 80010b2:	d106      	bne.n	80010c2 <_strtol_l.isra.0+0x1e>
 80010b4:	f000 f88c 	bl	80011d0 <__errno>
 80010b8:	2316      	movs	r3, #22
 80010ba:	6003      	str	r3, [r0, #0]
 80010bc:	2000      	movs	r0, #0
 80010be:	e8bd 87f0 	ldmia.w	sp!, {r4, r5, r6, r7, r8, r9, sl, pc}
 80010c2:	4834      	ldr	r0, [pc, #208]	@ (8001194 <_strtol_l.isra.0+0xf0>)
 80010c4:	460d      	mov	r5, r1
 80010c6:	462a      	mov	r2, r5
 80010c8:	f815 4b01 	ldrb.w	r4, [r5], #1
 80010cc:	5d06      	ldrb	r6, [r0, r4]
 80010ce:	f016 0608 	ands.w	r6, r6, #8
 80010d2:	d1f8      	bne.n	80010c6 <_strtol_l.isra.0+0x22>
 80010d4:	2c2d      	cmp	r4, #45	@ 0x2d
 80010d6:	d110      	bne.n	80010fa <_strtol_l.isra.0+0x56>
 80010d8:	782c      	ldrb	r4, [r5, #0]
 80010da:	2601      	movs	r6, #1
 80010dc:	1c95      	adds	r5, r2, #2
 80010de:	f033 0210 	bics.w	r2, r3, #16
 80010e2:	d115      	bne.n	8001110 <_strtol_l.isra.0+0x6c>
 80010e4:	2c30      	cmp	r4, #48	@ 0x30
 80010e6:	d10d      	bne.n	8001104 <_strtol_l.isra.0+0x60>
 80010e8:	782a      	ldrb	r2, [r5, #0]
 80010ea:	f002 02df 	and.w	r2, r2, #223	@ 0xdf
 80010ee:	2a58      	cmp	r2, #88	@ 0x58
 80010f0:	d108      	bne.n	8001104 <_strtol_l.isra.0+0x60>
 80010f2:	786c      	ldrb	r4, [r5, #1]
 80010f4:	3502      	adds	r5, #2
 80010f6:	2310      	movs	r3, #16
 80010f8:	e00a      	b.n	8001110 <_strtol_l.isra.0+0x6c>
 80010fa:	2c2b      	cmp	r4, #43	@ 0x2b
 80010fc:	bf04      	itt	eq
 80010fe:	782c      	ldrbeq	r4, [r5, #0]
 8001100:	1c95      	addeq	r5, r2, #2
 8001102:	e7ec      	b.n	80010de <_strtol_l.isra.0+0x3a>
 8001104:	2b00      	cmp	r3, #0
 8001106:	d1f6      	bne.n	80010f6 <_strtol_l.isra.0+0x52>
 8001108:	2c30      	cmp	r4, #48	@ 0x30
 800110a:	bf14      	ite	ne
 800110c:	230a      	movne	r3, #10
 800110e:	2308      	moveq	r3, #8
 8001110:	f106 4c00 	add.w	ip, r6, #2147483648	@ 0x80000000
 8001114:	f10c 3cff 	add.w	ip, ip, #4294967295	@ 0xffffffff
 8001118:	2200      	movs	r2, #0
 800111a:	fbbc f9f3 	udiv	r9, ip, r3
 800111e:	4610      	mov	r0, r2
 8001120:	fb03 ca19 	mls	sl, r3, r9, ip
 8001124:	f1a4 0730 	sub.w	r7, r4, #48	@ 0x30
 8001128:	2f09      	cmp	r7, #9
 800112a:	d80f      	bhi.n	800114c <_strtol_l.isra.0+0xa8>
 800112c:	463c      	mov	r4, r7
 800112e:	42a3      	cmp	r3, r4
 8001130:	dd1b      	ble.n	800116a <_strtol_l.isra.0+0xc6>
 8001132:	1c57      	adds	r7, r2, #1
 8001134:	d007      	beq.n	8001146 <_strtol_l.isra.0+0xa2>
 8001136:	4581      	cmp	r9, r0
 8001138:	d314      	bcc.n	8001164 <_strtol_l.isra.0+0xc0>
 800113a:	d101      	bne.n	8001140 <_strtol_l.isra.0+0x9c>
 800113c:	45a2      	cmp	sl, r4
 800113e:	db11      	blt.n	8001164 <_strtol_l.isra.0+0xc0>
 8001140:	fb00 4003 	mla	r0, r0, r3, r4
 8001144:	2201      	movs	r2, #1
 8001146:	f815 4b01 	ldrb.w	r4, [r5], #1
 800114a:	e7eb      	b.n	8001124 <_strtol_l.isra.0+0x80>
 800114c:	f1a4 0741 	sub.w	r7, r4, #65	@ 0x41
 8001150:	2f19      	cmp	r7, #25
 8001152:	d801      	bhi.n	8001158 <_strtol_l.isra.0+0xb4>
 8001154:	3c37      	subs	r4, #55	@ 0x37
 8001156:	e7ea      	b.n	800112e <_strtol_l.isra.0+0x8a>
 8001158:	f1a4 0761 	sub.w	r7, r4, #97	@ 0x61
 800115c:	2f19      	cmp	r7, #25
 800115e:	d804      	bhi.n	800116a <_strtol_l.isra.0+0xc6>
 8001160:	3c57      	subs	r4, #87	@ 0x57
 8001162:	e7e4      	b.n	800112e <_strtol_l.isra.0+0x8a>
 8001164:	f04f 32ff 	mov.w	r2, #4294967295	@ 0xffffffff
 8001168:	e7ed      	b.n	8001146 <_strtol_l.isra.0+0xa2>
 800116a:	1c53      	adds	r3, r2, #1
 800116c:	d108      	bne.n	8001180 <_strtol_l.isra.0+0xdc>
 800116e:	2322      	movs	r3, #34	@ 0x22
 8001170:	f8ce 3000 	str.w	r3, [lr]
 8001174:	4660      	mov	r0, ip
 8001176:	f1b8 0f00 	cmp.w	r8, #0
 800117a:	d0a0      	beq.n	80010be <_strtol_l.isra.0+0x1a>
 800117c:	1e69      	subs	r1, r5, #1
 800117e:	e006      	b.n	800118e <_strtol_l.isra.0+0xea>
 8001180:	b106      	cbz	r6, 8001184 <_strtol_l.isra.0+0xe0>
 8001182:	4240      	negs	r0, r0
 8001184:	f1b8 0f00 	cmp.w	r8, #0
 8001188:	d099      	beq.n	80010be <_strtol_l.isra.0+0x1a>
 800118a:	2a00      	cmp	r2, #0
 800118c:	d1f6      	bne.n	800117c <_strtol_l.isra.0+0xd8>
 800118e:	f8c8 1000 	str.w	r1, [r8]
 8001192:	e794      	b.n	80010be <_strtol_l.isra.0+0x1a>
 8001194:	080012e7 	.word	0x080012e7

08001198 <strtol>:
 8001198:	4613      	mov	r3, r2
 800119a:	460a      	mov	r2, r1
 800119c:	4601      	mov	r1, r0
 800119e:	4802      	ldr	r0, [pc, #8]	@ (80011a8 <strtol+0x10>)
 80011a0:	6800      	ldr	r0, [r0, #0]
 80011a2:	f7ff bf7f 	b.w	80010a4 <_strtol_l.isra.0>
 80011a6:	bf00      	nop
 80011a8:	20000000 	.word	0x20000000

080011ac <strncmp>:
 80011ac:	b510      	push	{r4, lr}
 80011ae:	b16a      	cbz	r2, 80011cc <strncmp+0x20>
 80011b0:	3901      	subs	r1, #1
 80011b2:	1884      	adds	r4, r0, r2
 80011b4:	f810 2b01 	ldrb.w	r2, [r0], #1
 80011b8:	f811 3f01 	ldrb.w	r3, [r1, #1]!
 80011bc:	429a      	cmp	r2, r3
 80011be:	d103      	bne.n	80011c8 <strncmp+0x1c>
 80011c0:	42a0      	cmp	r0, r4
 80011c2:	d001      	beq.n	80011c8 <strncmp+0x1c>
 80011c4:	2a00      	cmp	r2, #0
 80011c6:	d1f5      	bne.n	80011b4 <strncmp+0x8>
 80011c8:	1ad0      	subs	r0, r2, r3
 80011ca:	bd10      	pop	{r4, pc}
 80011cc:	4610      	mov	r0, r2
 80011ce:	e7fc      	b.n	80011ca <strncmp+0x1e>

080011d0 <__errno>:
 80011d0:	4b01      	ldr	r3, [pc, #4]	@ (80011d8 <__errno+0x8>)
 80011d2:	6818      	ldr	r0, [r3, #0]
 80011d4:	4770      	bx	lr
 80011d6:	bf00      	nop
 80011d8:	20000000 	.word	0x20000000

080011dc <__libc_init_array>:
 80011dc:	b570      	push	{r4, r5, r6, lr}
 80011de:	4d0d      	ldr	r5, [pc, #52]	@ (8001214 <__libc_init_array+0x38>)
 80011e0:	4c0d      	ldr	r4, [pc, #52]	@ (8001218 <__libc_init_array+0x3c>)
 80011e2:	1b64      	subs	r4, r4, r5
 80011e4:	10a4      	asrs	r4, r4, #2
 80011e6:	2600      	movs	r6, #0
 80011e8:	42a6      	cmp	r6, r4
 80011ea:	d109      	bne.n	8001200 <__libc_init_array+0x24>
 80011ec:	4d0b      	ldr	r5, [pc, #44]	@ (800121c <__libc_init_array+0x40>)
 80011ee:	4c0c      	ldr	r4, [pc, #48]	@ (8001220 <__libc_init_array+0x44>)
 80011f0:	f000 f818 	bl	8001224 <_init>
 80011f4:	1b64      	subs	r4, r4, r5
 80011f6:	10a4      	asrs	r4, r4, #2
 80011f8:	2600      	movs	r6, #0
 80011fa:	42a6      	cmp	r6, r4
 80011fc:	d105      	bne.n	800120a <__libc_init_array+0x2e>
 80011fe:	bd70      	pop	{r4, r5, r6, pc}
 8001200:	f855 3b04 	ldr.w	r3, [r5], #4
 8001204:	4798      	blx	r3
 8001206:	3601      	adds	r6, #1
 8001208:	e7ee      	b.n	80011e8 <__libc_init_array+0xc>
 800120a:	f855 3b04 	ldr.w	r3, [r5], #4
 800120e:	4798      	blx	r3
 8001210:	3601      	adds	r6, #1
 8001212:	e7f2      	b.n	80011fa <__libc_init_array+0x1e>
 8001214:	080013e8 	.word	0x080013e8
 8001218:	080013e8 	.word	0x080013e8
 800121c:	080013e8 	.word	0x080013e8
 8001220:	080013ec 	.word	0x080013ec

08001224 <_init>:
 8001224:	b5f8      	push	{r3, r4, r5, r6, r7, lr}
 8001226:	bf00      	nop
 8001228:	bcf8      	pop	{r3, r4, r5, r6, r7}
 800122a:	bc08      	pop	{r3}
 800122c:	469e      	mov	lr, r3
 800122e:	4770      	bx	lr

08001230 <_fini>:
 8001230:	b5f8      	push	{r3, r4, r5, r6, r7, lr}
 8001232:	bf00      	nop
 8001234:	bcf8      	pop	{r3, r4, r5, r6, r7}
 8001236:	bc08      	pop	{r3}
 8001238:	469e      	mov	lr, r3
 800123a:	4770      	bx	lr
